(lp0
(lp1
F17.99015998840332
aF0.22792308032512665
aI0
aI0
aa(lp2
F22.430770874023438
aF0.23350828886032104
aI0
aI0
aa(lp3
F0.4891204535961151
aF0.23781387507915497
aI0
aI0
aa(lp4
F3.499915599822998
aF0.24246981739997864
aI0
aI0
aa(lp5
F0.4746842086315155
aF0.2436838299036026
aI0
aI0
aa(lp6
F7.544819355010986
aF0.24580366909503937
aI0
aI0
aa(lp7
F17.927570343017578
aF0.250977098941803
aI0
aI0
aa(lp8
F0.4277806580066681
aF0.2548116147518158
aI0
aI0
aa(lp9
F0.4477369785308838
aF0.25858601927757263
aI0
aI0
aa(lp10
F10.52493667602539
aF0.26145049929618835
aI0
aI0
aa.