ccollections
defaultdict
p0
(c__builtin__
list
p1
tp2
Rp3
I0
(lp4
(lp5
F0.38989514112472534
aF1.766697883605957
aa(lp6
F0.38816824555397034
aF1.766335368156433
aa(lp7
F0.38008373975753784
aF1.764812707901001
aa(lp8
F0.35836368799209595
aF1.761644959449768
aa(lp9
F0.3314879536628723
aF1.7578505277633667
aa(lp10
F0.29770737886428833
aF1.7536447048187256
aa(lp11
F0.2571338713169098
aF1.7490782737731934
aa(lp12
F0.21238091588020325
aF1.7448906898498535
aa(lp13
F0.1656440794467926
aF1.7422467470169067
aa(lp14
F0.11966738104820251
aF1.7415080070495605
aa(lp15
F0.07860192656517029
aF1.7422152757644653
aa(lp16
F0.040704257786273956
aF1.744160532951355
aa(lp17
F0.005090026650577784
aF1.7472169399261475
aa(lp18
F-0.0362531878054142
aF1.7519603967666626
aa(lp19
F-0.065870501101017
aF1.7565056085586548
aa(lp20
F-0.08351161330938339
aF1.7597442865371704
aa(lp21
F-0.1025041714310646
aF1.7639139890670776
aa(lp22
F-0.11553280800580978
aF1.767183542251587
aa(lp23
F-0.13494159281253815
aF1.7727758884429932
aa(lp24
F-0.1491304337978363
aF1.7774640321731567
aa(lp25
F-0.1647816300392151
aF1.783276915550232
aa(lp26
F-0.17890378832817078
aF1.7891632318496704
aa(lp27
F-0.18859370052814484
aF1.7936749458312988
aa(lp28
F-0.19719696044921875
aF1.7981311082839966
aa(lp29
F-0.20601113140583038
aF1.80316960811615
aa(lp30
F-0.2145490199327469
aF1.8085004091262817
aa(lp31
F-0.22043807804584503
aF1.8125073909759521
aa(lp32
F-0.22310137748718262
aF1.8145004510879517
aa(lp33
F-0.22392138838768005
aF1.8151527643203735
aa(lp34
F-0.22189627587795258
aF1.8133337497711182
aa(lp35
F-0.2200089991092682
aF1.8115075826644897
aa(lp36
F-0.21999624371528625
aF1.8115010261535645
aa(lp37
F-0.21991406381130219
aF1.8114031553268433
aa(lp38
F-0.21906226873397827
aF1.8103041648864746
aa(lp39
F-0.21736060082912445
aF1.8079016208648682
aa(lp40
F-0.21467897295951843
aF1.803734540939331
aa(lp41
F-0.21100762486457825
aF1.7974472045898438
aa(lp42
F-0.20590928196907043
aF1.7875850200653076
aa(lp43
F-0.20115727186203003
aF1.7770564556121826
aa(lp44
F-0.19481749832630157
aF1.760938048362732
aa(lp45
F-0.1891992688179016
aF1.7444690465927124
aa(lp46
F-0.18456310033798218
aF1.7284830808639526
aa(lp47
F-0.18021966516971588
aF1.7106709480285645
aa(lp48
F-0.17530852556228638
aF1.6852203607559204
aa(lp49
F-0.17262499034404755
aF1.6679084300994873
aa(lp50
F-0.16965724527835846
aF1.6426236629486084
aa(lp51
F-0.1676841825246811
aF1.6148498058319092
aa(lp52
F-0.16678382456302643
aF1.5838903188705444
aa(lp53
F-0.16738343238830566
aF1.5474586486816406
aa(lp54
F-0.16903048753738403
aF1.5204544067382812
aa(lp55
F-0.17184950411319733
aF1.491493582725525
aa(lp56
F-0.17605681717395782
aF1.4577687978744507
aa(lp57
F-0.18190878629684448
aF1.421476125717163
aa(lp58
F-0.18900123238563538
aF1.3874378204345703
aa(lp59
F-0.19985345005989075
aF1.3474639654159546
aa(lp60
F-0.2134709656238556
aF1.305403470993042
aa(lp61
F-0.22615082561969757
aF1.2697360515594482
aa(lp62
F-0.23892872035503387
aF1.2363333702087402
aa(lp63
F-0.2524348795413971
aF1.2037997245788574
aa(lp64
F-0.2669210135936737
aF1.1714321374893188
aa(lp65
F-0.2830016613006592
aF1.1379785537719727
aa(lp66
F-0.2995755970478058
aF1.1055643558502197
aa(lp67
F-0.3171466588973999
aF1.0731009244918823
aa(lp68
F-0.33500733971595764
aF1.0419952869415283
aa(lp69
F-0.35275256633758545
aF1.012694001197815
aa(lp70
F-0.37520161271095276
aF0.9776211977005005
aa(lp71
F-0.38887059688568115
aF0.9572396278381348
aa(lp72
F-0.41225922107696533
aF0.9238625168800354
aa(lp73
F-0.431377649307251
aF0.8978101015090942
aa(lp74
F-0.45042192935943604
aF0.8727390170097351
aa(lp75
F-0.4683505892753601
aF0.8498368263244629
aa(lp76
F-0.4864122271537781
aF0.8275594711303711
aa(lp77
F-0.504541277885437
aF0.8059040307998657
aa(lp78
F-0.5226078033447266
aF0.7849981188774109
aa(lp79
F-0.5411370992660522
aF0.7642776966094971
aa(lp80
F-0.5588539242744446
aF0.7451868057250977
aa(lp81
F-0.5765359401702881
aF0.7266755104064941
aa(lp82
F-0.5940573215484619
aF0.7088170051574707
aa(lp83
F-0.6109316349029541
aF0.6920572519302368
aa(lp84
F-0.6275664567947388
aF0.67596036195755
aa(lp85
F-0.6441736221313477
aF0.660293698310852
aa(lp86
F-0.6607288122177124
aF0.6450648307800293
aa(lp87
F-0.6814010143280029
aF0.6265939474105835
aa(lp88
F-0.6971094012260437
aF0.6129827499389648
aa(lp89
F-0.7124596834182739
aF0.5999831557273865
aa(lp90
F-0.7277757525444031
aF0.5873163342475891
aa(lp91
F-0.7429186701774597
aF0.5750846266746521
aa(lp92
F-0.7576597929000854
aF0.5634430646896362
aa(lp93
F-0.7718943953514099
aF0.5524595379829407
aa(lp94
F-0.7859511971473694
aF0.5418580174446106
aa(lp95
F-0.7998297214508057
aF0.5316245555877686
aa(lp96
F-0.8177045583724976
aF0.518779456615448
aa(lp97
F-0.8307750225067139
aF0.5096629858016968
aa(lp98
F-0.8403320908546448
aF0.5031195282936096
aa(lp99
F-0.8557797074317932
aF0.4927516579627991
aa(lp100
F-0.8681623339653015
aF0.4846341907978058
aa(lp101
F-0.8803600668907166
aF0.4768243730068207
aa(lp102
F-0.8896176218986511
aF0.47101297974586487
aa(lp103
F-0.9018720388412476
aF0.46347489953041077
aa(lp104
F-0.9164566397666931
aF0.4547034800052643
aa(lp105
F-0.9249472618103027
aF0.44970276951789856
aa(lp106
F-0.9364849328994751
aF0.44301825761795044
aa(lp107
F-0.9479427337646484
aF0.4365086853504181
aa(lp108
F-0.9592614769935608
aF0.4302067160606384
aa(lp109
F-0.9704728126525879
aF0.42411157488822937
aa(lp110
F-0.9809550046920776
aF0.41854554414749146
aa(lp111
F-0.9916679859161377
aF0.41298091411590576
aa(lp112
F-1.0023375749588013
aF0.4075455963611603
aa(lp113
F-1.0127763748168945
aF0.4023401141166687
aa(lp114
F-1.0231529474258423
aF0.3972685635089874
aa(lp115
F-1.0369282960891724
aF0.3906962275505066
aa(lp116
F-1.0503461360931396
aF0.3845013380050659
aa(lp117
F1.824979543685913
aF1.4295344352722168
aa(lp118
F1.826897144317627
aF1.4287662506103516
aa(lp119
F1.828580379486084
aF1.4280624389648438
aa(lp120
F1.8280854225158691
aF1.428287386894226
aa(lp121
F1.826900601387024
aF1.4288564920425415
aa(lp122
F1.823119878768921
aF1.4306689500808716
aa(lp123
F1.8186335563659668
aF1.432918906211853
aa(lp124
F1.8129699230194092
aF1.4359548091888428
aasI1
(lp125
(lp126
F2.991549491882324
aF2.6356685161590576
aa(lp127
F2.9905455112457275
aF2.634629964828491
aa(lp128
F2.985565662384033
aF2.6292505264282227
aa(lp129
F2.983234405517578
aF2.6267175674438477
aa(lp130
F2.982736825942993
aF2.626263380050659
aa(lp131
F2.9777004718780518
aF2.621277332305908
aa(lp132
F2.96828556060791
aF2.6109771728515625
aa(lp133
F2.9552536010742188
aF2.595625638961792
aa(lp134
F2.9368207454681396
aF2.573209285736084
aa(lp135
F2.9143621921539307
aF2.5441620349884033
aa(lp136
F2.888077974319458
aF2.508403778076172
aa(lp137
F2.8582706451416016
aF2.4657535552978516
aa(lp138
F2.8252499103546143
aF2.416036605834961
aa(lp139
F2.779921770095825
aF2.343679189682007
aa(lp140
F2.7414114475250244
aF2.278672218322754
aa(lp141
F2.7098090648651123
aF2.2228946685791016
aa(lp142
F2.667531728744507
aF2.1448709964752197
aa(lp143
F2.636277198791504
aF2.0857183933258057
aa(lp144
F2.585704803466797
aF1.987174153327942
aa(lp145
F2.5476577281951904
aF1.9105855226516724
aa(lp146
F2.5110971927642822
aF1.8346741199493408
aa(lp147
F2.4759023189544678
aF1.758853793144226
aa(lp148
F2.4421136379241943
aF1.6828986406326294
aa(lp149
F2.4113693237304688
aF1.6105419397354126
aa(lp150
F2.38127064704895
aF1.5360857248306274
aa(lp151
F2.3528900146484375
aF1.461742877960205
aa(lp152
F2.3269784450531006
aF1.389499545097351
aa(lp153
F2.3032541275024414
aF1.319602370262146
aa(lp154
F2.2811577320098877
aF1.2492282390594482
aa(lp155
F2.2619948387145996
aF1.1822903156280518
aa(lp156
F2.2450509071350098
aF1.1173876523971558
aa(lp157
F2.230775833129883
aF1.0572724342346191
aa(lp158
F2.219411611557007
aF1.0021852254867554
aa(lp159
F2.2102127075195312
aF0.9515461921691895
aa(lp160
F2.200610399246216
aF0.8886743783950806
aa(lp161
F2.194512128829956
aF0.8394399881362915
aa(lp162
F2.1899523735046387
aF0.7942140698432922
aa(lp163
F2.186093330383301
aF0.7426276206970215
aa(lp164
F2.1841654777526855
aF0.7024083137512207
aa(lp165
F2.1832149028778076
aF0.6642568707466125
aa(lp166
F2.18318772315979
aF0.629607081413269
aa(lp167
F2.183763265609741
aF0.6014758944511414
aa(lp168
F2.1847939491271973
aF0.5750153660774231
aa(lp169
F2.186685562133789
aF0.543582022190094
aa(lp170
F2.188117742538452
aF0.525320291519165
aa(lp171
F2.1903789043426514
aF0.5014539957046509
aa(lp172
F2.1929972171783447
aF0.47791746258735657
aa(lp173
F2.19562029838562
aF0.45625627040863037
aa(lp174
F2.198910713195801
aF0.43192043900489807
aa(lp175
F2.2016441822052
aF0.41385912895202637
aa(lp176
F2.2045700550079346
aF0.39616459608078003
aa(lp177
F2.2073333263397217
aF0.38070616126060486
aa(lp178
F2.2103073596954346
aF0.36501336097717285
aa(lp179
F2.213067054748535
aF0.3509027659893036
aa(lp180
F2.2157278060913086
aF0.3378104269504547
aa(lp181
F2.2183332443237305
aF0.325548380613327
aa(lp182
F2.220940113067627
aF0.31373703479766846
aa(lp183
F2.2234787940979004
aF0.3026213049888611
aa(lp184
F2.225558042526245
aF0.29412031173706055
aa(lp185
F2.227849006652832
aF0.28499114513397217
aa(lp186
F2.2301387786865234
aF0.2759914696216583
aa(lp187
F2.2322704792022705
aF0.2676994502544403
aa(lp188
F2.234354257583618
aF0.259655624628067
aa(lp189
F2.236468553543091
aF0.25153735280036926
aa(lp190
F2.2384469509124756
aF0.24397198855876923
aa(lp191
F2.2407658100128174
aF0.23515191674232483
aa(lp192
F2.2421326637268066
aF0.22997716069221497
aa(lp193
F3.2692651748657227
aF2.626115083694458
aa(lp194
F3.267761707305908
aF2.625521183013916
aa(lp195
F3.262171745300293
aF2.6236588954925537
aa(lp196
F3.2509377002716064
aF2.6206107139587402
aa(lp197
F3.230391025543213
aF2.6166625022888184
aa(lp198
F3.202122449874878
aF2.6127114295959473
aa(lp199
F3.1657660007476807
aF2.6094439029693604
aa(lp200
F3.121715545654297
aF2.607328414916992
aa(lp201
F3.0695743560791016
aF2.606703281402588
aa(lp202
F3.010605573654175
aF2.607853889465332
aa(lp203
F2.949260711669922
aF2.6110129356384277
aa(lp204
F2.8909950256347656
aF2.6166653633117676
aa(lp205
F2.8337302207946777
aF2.6264090538024902
aa(lp206
F2.7814486026763916
aF2.6390726566314697
aa(lp207
F2.7387402057647705
aF2.6535115242004395
aa(lp208
F2.6985998153686523
aF2.672112464904785
aa(lp209
F2.6738405227661133
aF2.6871423721313477
aa(lp210
F2.6548726558685303
aF2.700000762939453
aa(lp211
F2.640160322189331
aF2.7102222442626953
aa(lp212
F2.629692316055298
aF2.717674493789673
aa(lp213
F2.6254665851593018
aF2.7209360599517822
aa(lp214
F2.6278135776519775
aF2.718675136566162
aa(lp215
F2.635568618774414
aF2.7098000049591064
aa(lp216
F2.645714282989502
aF2.696056604385376
aa(lp217
F2.662815809249878
aF2.6683273315429688
aa(lp218
F2.67710542678833
aF2.6398017406463623
aa(lp219
F2.6875030994415283
aF2.613227605819702
aa(lp220
F2.703265428543091
aF2.5589869022369385
aa(lp221
F2.7137184143066406
aF2.506622076034546
aa(lp222
F2.7207114696502686
aF2.4459877014160156
aa(lp223
F2.7232675552368164
aF2.3948137760162354
aa(lp224
F2.7224857807159424
aF2.3204870223999023
aa(lp225
F2.7140913009643555
aF2.219845771789551
aa(lp226
F2.704728841781616
aF2.1555168628692627
aa(lp227
F2.6857712268829346
aF2.062333106994629
aa(lp228
F2.6594302654266357
aF1.9671251773834229
aa(lp229
F2.6263983249664307
aF1.8728891611099243
aa(lp230
F2.5883638858795166
aF1.779676079750061
aa(lp231
F2.548217535018921
aF1.6936966180801392
aa(lp232
F2.504664421081543
aF1.608116626739502
aa(lp233
F2.4599485397338867
aF1.5264450311660767
aa(lp234
F2.4140679836273193
aF1.4476115703582764
aa(lp235
F2.368007183074951
aF1.373016357421875
aa(lp236
F2.3092763423919678
aF1.282749891281128
aa(lp237
F2.2629458904266357
aF1.2150522470474243
aa(lp238
F2.223679542541504
aF1.1599115133285522
aa(lp239
F2.179337739944458
aF1.0998553037643433
aa(lp240
F2.137993097305298
aF1.0481241941452026
aa(lp241
F2.099261522293091
aF1.0025027990341187
aa(lp242
F2.074601650238037
aF0.9757518172264099
aa(lp243
F2.0451254844665527
aF0.9462291598320007
aa(lp244
F2.018582582473755
aF0.9205207824707031
aa(lp245
F1.9948959350585938
aF0.8975489735603333
aasI2
(lp246
(lp247
F-1.4668583869934082
aF0.7749220728874207
aa(lp248
F-1.4629807472229004
aF0.7755484580993652
aa(lp249
F-1.4489662647247314
aF0.777759313583374
aa(lp250
F-1.4189424514770508
aF0.7823531031608582
aa(lp251
F-1.3888002634048462
aF0.7863187193870544
aa(lp252
F-1.3494242429733276
aF0.7913947105407715
aa(lp253
F-1.3070693016052246
aF0.7969430685043335
aa(lp254
F-1.2593374252319336
aF0.8028007745742798
aa(lp255
F-1.204961895942688
aF0.8081181645393372
aa(lp256
F-1.1504322290420532
aF0.8113901019096375
aa(lp257
F-1.1002922058105469
aF0.8121333718299866
aa(lp258
F-1.049692153930664
aF0.8113716840744019
aa(lp259
F-0.9970663785934448
aF0.8098097443580627
aa(lp260
F-0.9403195977210999
aF0.8074156641960144
aa(lp261
F-0.8987180590629578
aF0.80454021692276
aa(lp262
F-0.8661054968833923
aF0.8015857934951782
aa(lp263
F-0.8248776793479919
aF0.7969565391540527
aa(lp264
F-0.7942906022071838
aF0.792888879776001
aa(lp265
F-0.7448118925094604
aF0.7851579189300537
aa(lp266
F-0.7086737155914307
aF0.7785695791244507
aa(lp267
F-0.6739914417266846
aF0.7715619206428528
aa(lp268
F-0.6399872303009033
aF0.7640846371650696
aa(lp269
F-0.6063041090965271
aF0.7560790181159973
aa(lp270
F-0.5744314789772034
aF0.7479692697525024
aa(lp271
F-0.5405952334403992
aF0.7387639284133911
aa(lp272
F-0.5028616189956665
aF0.7274994850158691
aa(lp273
F-0.46665653586387634
aF0.7160934805870056
aa(lp274
F-0.4343341588973999
aF0.7054132223129272
aa(lp275
F-0.40140897035598755
aF0.6940561532974243
aa(lp276
F-0.3684692680835724
aF0.6822243332862854
aa(lp277
F-0.335749089717865
aF0.6700315475463867
aa(lp278
F-0.30254143476486206
aF0.657171905040741
aa(lp279
F-0.26909568905830383
aF0.6437740921974182
aa(lp280
F-0.23668716847896576
aF0.6303310990333557
aa(lp281
F-0.19240930676460266
aF0.6109789609909058
aa(lp282
F-0.15725669264793396
aF0.5950948596000671
aa(lp283
F-0.12229149043560028
aF0.5788595080375671
aa(lp284
F-0.07856781780719757
aF0.5580013394355774
aa(lp285
F-0.043800290673971176
aF0.5410159230232239
aa(lp286
F-0.00962932500988245
aF0.5239548087120056
aa(lp287
F0.02534869685769081
aF0.5061639547348022
aa(lp288
F0.060132913291454315
aF0.4881437122821808
aa(lp289
F0.09474870562553406
aF0.4698774814605713
aa(lp290
F0.13816756010055542
aF0.44656068086624146
aa(lp291
F0.1641097217798233
aF0.4324018657207489
aa(lp292
F0.19871683418750763
aF0.4132733941078186
aa(lp293
F0.233454167842865
aF0.39380937814712524
aa(lp294
F0.26796525716781616
aF0.3742141127586365
aa(lp295
F0.3108370900154114
aF0.34953773021698
aa(lp296
F0.3445703387260437
aF0.32986587285995483
aa(lp297
F0.37883231043815613
aF0.30966928601264954
aa(lp298
F0.41166186332702637
aF0.29011833667755127
aa(lp299
F0.445732444524765
aF0.26963716745376587
aa(lp300
F0.47996851801872253
aF0.24887000024318695
aa(lp301
F0.5141875147819519
aF0.22792939841747284
aa(lp302
F0.5481727123260498
aF0.2069687396287918
aa(lp303
F0.5821309685707092
aF0.18586410582065582
aa(lp304
F0.615502119064331
aF0.16497449576854706
aa(lp305
F0.6470453143119812
aF0.1450885683298111
aa(lp306
F0.6773616075515747
aF0.1257794201374054
aa(lp307
F0.7074863314628601
aF0.10646531730890274
aa(lp308
F0.7356290817260742
aF0.08827286958694458
aa(lp309
F0.7639919519424438
aF0.06978682428598404
aa(lp310
F0.7922340631484985
aF0.05120132490992546
aa(lp311
F0.8189638257026672
aF0.03345957770943642
aa(lp312
F0.8505099415779114
aF0.01224383432418108
aa(lp313
F0.868627667427063
aF-7.68359168432653e-05
aa(lp314
F0.8979893326759338
aF-0.02024919167160988
aa(lp315
F0.9210363626480103
aF-0.036304183304309845
aa(lp316
F0.9433929324150085
aF-0.05202271416783333
aa(lp317
F0.9643498063087463
aF-0.06691750138998032
aa(lp318
F0.9847878813743591
aF-0.08158668130636215
aa(lp319
F1.0047029256820679
aF-0.09604565799236298
aa(lp320
F1.0236707925796509
aF-0.11003339290618896
aa(lp321
F1.0422857999801636
aF-0.12385262548923492
aa(lp322
F1.0596258640289307
aF-0.1368163377046585
aa(lp323
F1.0766159296035767
aF-0.14965669810771942
aa(lp324
F1.0932341814041138
aF-0.16235113143920898
aa(lp325
F1.109012484550476
aF-0.17454703152179718
aa(lp326
F1.1243890523910522
aF-0.1865374743938446
aa(lp327
F1.1389387845993042
aF-0.19798287749290466
aa(lp328
F1.1531634330749512
aF-0.2093062698841095
aa(lp329
F1.1702834367752075
aF-0.22311262786388397
aa(lp330
F1.1835511922836304
aF-0.23392947018146515
aa(lp331
F1.1968342065811157
aF-0.24486060440540314
aa(lp332
F1.208916425704956
aF-0.2548941969871521
aa(lp333
F1.2204227447509766
aF-0.2645658850669861
aa(lp334
F1.2311785221099854
aF-0.2737330496311188
aa(lp335
F1.2417473793029785
aF-0.28285977244377136
aa(lp336
F1.252013921737671
aF-0.29183512926101685
aa(lp337
F1.26211678981781
aF-0.3007677495479584
aa(lp338
F1.2740199565887451
aF-0.3114142119884491
aa(lp339
F-0.8809759616851807
aF1.740925669670105
aa(lp340
F-0.8806197047233582
aF1.7403404712677002
aa(lp341
F-0.8762226104736328
aF1.7331758737564087
aa(lp342
F-0.8704074025154114
aF1.722031593322754
aa(lp343
F-0.8628573417663574
aF1.7050179243087769
aa(lp344
F-0.855268657207489
aF1.6867212057113647
aa(lp345
F-0.84458327293396
aF1.6588762998580933
aa(lp346
F-0.8305255770683289
aF1.6211875677108765
aa(lp347
F-0.822603702545166
aF1.6006752252578735
aa(lp348
F-0.8111000657081604
aF1.5719043016433716
aa(lp349
F-0.7989931702613831
aF1.5425945520401
aa(lp350
F-0.7862834334373474
aF1.5128395557403564
aa(lp351
F-0.7727227807044983
aF1.4819931983947754
aa(lp352
F-0.7600595355033875
aF1.4538682699203491
aa(lp353
F-0.7480208873748779
aF1.4275944232940674
aa(lp354
F-0.7362374067306519
aF1.4024369716644287
aa(lp355
F-0.7245316505432129
aF1.3780286312103271
aa(lp356
F-0.7127435207366943
aF1.3539448976516724
aa(lp357
F-0.6979263424873352
aF1.3243917226791382
aa(lp358
F-0.6860830187797546
aF1.3012895584106445
aa(lp359
F-0.675395131111145
aF1.2807731628417969
aa(lp360
F-0.6622281074523926
aF1.2559680938720703
aa(lp361
F-0.6467114686965942
aF1.2283107042312622
aa(lp362
F-0.6268441677093506
aF1.1945759057998657
aa(lp363
F-0.6113672256469727
aF1.168953537940979
aa(lp364
F-0.5893383026123047
aF1.1335135698318481
aa(lp365
F-0.5649328231811523
aF1.0949244499206543
aa(lp366
F-0.5405945181846619
aF1.0572185516357422
aasI3
(lp367
(lp368
F-2.591811418533325
aF3.0640432834625244
aa(lp369
F-2.5892579555511475
aF3.067404270172119
aa(lp370
F-2.5886614322662354
aF3.0681827068328857
aa(lp371
F-2.5939249992370605
aF3.0609652996063232
aa(lp372
F-2.60260272026062
aF3.0474536418914795
aa(lp373
F-2.614039182662964
aF3.028620958328247
aa(lp374
F-2.6275453567504883
aF3.0053672790527344
aa(lp375
F-2.6437604427337646
aF2.9773447513580322
aa(lp376
F-2.6632473468780518
aF2.9453868865966797
aa(lp377
F-2.6861672401428223
aF2.912294864654541
aa(lp378
F-2.7082598209381104
aF2.885251998901367
aa(lp379
F-2.7291271686553955
aF2.863539218902588
aa(lp380
F-2.749262809753418
aF2.845445394515991
aa(lp381
F-2.7722299098968506
aF2.8282055854797363
aa(lp382
F-2.786311149597168
aF2.8191990852355957
aa(lp383
F-2.794210195541382
aF2.8147387504577637
aa(lp384
F-2.8017051219940186
aF2.8109753131866455
aa(lp385
F-2.8062636852264404
aF2.8089966773986816
aa(lp386
F-2.807692527770996
aF2.8084287643432617
aa(lp387
F-2.799866199493408
aF2.810635566711426
aa(lp388
F-2.7848074436187744
aF2.8135600090026855
aa(lp389
F-2.7666409015655518
aF2.815352439880371
aa(lp390
F-2.7419986724853516
aF2.814756155014038
aa(lp391
F-2.7117769718170166
aF2.8102951049804688
aa(lp392
F-2.671826124191284
aF2.800520896911621
aa(lp393
F-2.627709150314331
aF2.7852203845977783
aa(lp394
F-2.5789012908935547
aF2.7626898288726807
aa(lp395
F-2.527304172515869
aF2.7328920364379883
aa(lp396
F-2.472153663635254
aF2.6938767433166504
aa(lp397
F-2.4166810512542725
aF2.6483237743377686
aa(lp398
F-2.3607521057128906
aF2.597043037414551
aa(lp399
F-2.3078505992889404
aF2.544593572616577
aa(lp400
F-2.2580418586730957
aF2.491248607635498
aa(lp401
F-2.212109088897705
aF2.4392330646514893
aa(lp402
F-2.155035972595215
aF2.3707334995269775
aa(lp403
F-2.1108100414276123
aF2.3143630027770996
aa(lp404
F-2.067746639251709
aF2.2564656734466553
aa(lp405
F-2.015681505203247
aF2.1821115016937256
aa(lp406
F-1.9770232439041138
aF2.123617172241211
aa(lp407
F-1.9430822134017944
aF2.070300579071045
aa(lp408
F-1.910375714302063
aF2.017195463180542
aa(lp409
F-1.8805198669433594
aF1.9668647050857544
aa(lp410
F-1.8518836498260498
aF1.9169590473175049
aa(lp411
F-1.8164092302322388
aF1.8529869318008423
aa(lp412
F-1.7952783107757568
aF1.8136024475097656
aa(lp413
F-1.7682791948318481
aF1.7618777751922607
aa(lp414
F-1.7440544366836548
aF1.7136098146438599
aa(lp415
F-1.720118761062622
aF1.6643121242523193
aa(lp416
F-1.6918354034423828
aF1.6044633388519287
aa(lp417
F-1.6706912517547607
aF1.5587409734725952
aa(lp418
F-1.6494207382202148
aF1.5117019414901733
aa(lp419
F-1.6292973756790161
aF1.4661247730255127
aa(lp420
F-1.6085964441299438
aF1.4182231426239014
aa(lp421
F-1.5886039733886719
aF1.3706753253936768
aa(lp422
F-1.5694148540496826
aF1.3238166570663452
aa(lp423
F-1.5510975122451782
aF1.277850866317749
aa(lp424
F-1.5337719917297363
aF1.2332234382629395
aa(lp425
F-1.5168689489364624
aF1.188676357269287
aa(lp426
F-1.5010077953338623
aF1.145856261253357
aa(lp427
F-1.4859399795532227
aF1.104514718055725
aa(lp428
F-1.4712607860565186
aF1.0631043910980225
aa(lp429
F-1.4579391479492188
aF1.0245121717453003
aa(lp430
F-1.4449236392974854
aF0.9857487678527832
aa(lp431
F-1.4328514337539673
aF0.9482834339141846
aa(lp432
F-1.4216150045394897
aF0.9128409624099731
aa(lp433
F-1.4086650609970093
aF0.8711333870887756
aa(lp434
F-1.4012309312820435
aF0.8467228412628174
aa(lp435
F-1.3892930746078491
aF0.8068909645080566
aa(lp436
F-1.3802059888839722
aF0.775944173336029
aa(lp437
F-1.3714146614074707
aF0.7455630302429199
aa(lp438
F-1.3630427122116089
aF0.7161388397216797
aa(lp439
F-1.3553156852722168
aF0.6883209347724915
aa(lp440
F-1.3478376865386963
aF0.6609485745429993
aa(lp441
F-1.3406224250793457
aF0.6340853571891785
aa(lp442
F-1.333599328994751
aF0.6073771715164185
aa(lp443
F-1.326924443244934
aF0.5814233422279358
aa(lp444
F-1.3208523988723755
aF0.5571951270103455
aa(lp445
F-1.315041422843933
aF0.5335828065872192
aa(lp446
F-1.309554100036621
aF0.510749876499176
aa(lp447
F-1.3039350509643555
aF0.4870521128177643
aa(lp448
F-1.2970619201660156
aF0.45894384384155273
aa(lp449
F-1.290304183959961
aF0.43056002259254456
aa(lp450
F-1.2828179597854614
aF0.39959290623664856
aa(lp451
F-1.2781181335449219
aF0.3793976604938507
aa(lp452
F-1.2739386558532715
aF0.36084288358688354
aa(lp453
F-1.2700045108795166
aF0.3428986966609955
aa(lp454
F-1.2659631967544556
aF0.3238677680492401
aa(lp455
F-1.2619857788085938
aF0.30443626642227173
aa(lp456
F-1.258274793624878
aF0.2855391502380371
aa(lp457
F-1.255059838294983
aF0.26857873797416687
aa(lp458
F-1.2521690130233765
aF0.2528036832809448
aa(lp459
F-1.2488421201705933
aF0.23392346501350403
aa(lp460
F-1.2459673881530762
aF0.21687111258506775
aa(lp461
F-1.2437934875488281
aF0.20342367887496948
aa(lp462
F-1.2406426668167114
aF0.18300430476665497
aa(lp463
F-1.238726258277893
aF0.16995804011821747
aa(lp464
F-1.2369250059127808
aF0.15714818239212036
aa(lp465
F-1.235616683959961
aF0.14743345975875854
aa(lp466
F-1.2339775562286377
aF0.13469798862934113
aa(lp467
F-1.2321515083312988
aF0.11962983012199402
aa(lp468
F-1.2311699390411377
aF0.11111011356115341
aa(lp469
F-1.2298917770385742
aF0.09958101809024811
aa(lp470
F-1.2287030220031738
aF0.08817348629236221
aa(lp471
F-1.2276207208633423
aF0.07711506634950638
aa(lp472
F-1.2266316413879395
aF0.0662383958697319
aa(lp473
F-1.2257486581802368
aF0.05579308047890663
aa(lp474
F-1.2249267101287842
aF0.045229583978652954
aa(lp475
F-1.22419011592865
aF0.03480084240436554
aa(lp476
F-1.223528504371643
aF0.024414950981736183
aa(lp477
F-1.2229384183883667
aF0.014275522902607918
aa(lp478
F-1.2222979068756104
aF0.002081275451928377
aa(lp479
F-1.2218502759933472
aF-0.007729196920990944
aa(lp480
F-2.8599746227264404
aF3.18684458732605
aa(lp481
F-2.8568718433380127
aF3.1818654537200928
aa(lp482
F-2.8510308265686035
aF3.170595645904541
aa(lp483
F-2.842766284942627
aF3.151310443878174
aa(lp484
F-2.835967779159546
aF3.1336889266967773
aa(lp485
F-2.8257992267608643
aF3.103182792663574
aa(lp486
F-2.8147284984588623
aF3.064542293548584
aa(lp487
F-2.8035078048706055
aF3.0183441638946533
aasI4
(lp488
(lp489
F-1.47002375125885
aF-1.6341859102249146
aa(lp490
F-1.6835951805114746
aF-1.059907078742981
aa(lp491
F-1.679235816001892
aF-1.0655099153518677
aa(lp492
F-1.670462965965271
aF-1.075775384902954
aa(lp493
F-1.6587462425231934
aF-1.0887700319290161
aa(lp494
F-1.6461851596832275
aF-1.102251410484314
aa(lp495
F-1.6345241069793701
aF-1.113936424255371
aa(lp496
F-1.621804118156433
aF-1.125867247581482
aa(lp497
F-1.6042671203613281
aF-1.1414244174957275
aa(lp498
F-1.5848350524902344
aF-1.157069444656372
aa(lp499
F-1.562698483467102
aF-1.1739312410354614
aa(lp500
F-1.53709077835083
aF-1.1926699876785278
aa(lp501
F-1.509564995765686
aF-1.211097240447998
aa(lp502
F-1.4708606004714966
aF-1.2350167036056519
aa(lp503
F-1.4376765489578247
aF-1.2535665035247803
aa(lp504
F-1.412522315979004
aF-1.2662880420684814
aa(lp505
F-1.377258539199829
aF-1.282545804977417
aa(lp506
F-1.3468937873840332
aF-1.295289158821106
aa(lp507
F-1.2936862707138062
aF-1.3153132200241089
aa(lp508
F-1.250112533569336
aF-1.3292502164840698
aa(lp509
F-1.20365571975708
aF-1.342150330543518
aa(lp510
F-1.15504789352417
aF-1.3535568714141846
aa(lp511
F-1.0987555980682373
aF-1.3643323183059692
aa(lp512
F-1.0432651042938232
aF-1.3730337619781494
aa(lp513
F-0.9861489534378052
aF-1.3799821138381958
aa(lp514
F-0.9269429445266724
aF-1.3850501775741577
aa(lp515
F-0.8693132996559143
aF-1.387980580329895
aa(lp516
F-0.8122806549072266
aF-1.3889625072479248
aa(lp517
F-0.7531036734580994
aF-1.3881170749664307
aa(lp518
F-0.6933169960975647
aF-1.3854806423187256
aa(lp519
F-0.6329481601715088
aF-1.3810808658599854
aa(lp520
F-0.5721384882926941
aF-1.3747791051864624
aa(lp521
F-0.511527419090271
aF-1.3669960498809814
aa(lp522
F-0.45416271686553955
aF-1.3582743406295776
aa(lp523
F-0.3798183500766754
aF-1.3452000617980957
aa(lp524
F-0.3207537531852722
aF-1.3333983421325684
aa(lp525
F-0.26334017515182495
aF-1.320837140083313
aa(lp526
F-0.1922110915184021
aF-1.3039015531539917
aa(lp527
F-0.13425587117671967
aF-1.2890052795410156
aa(lp528
F-0.07604264467954636
aF-1.27325439453125
aa(lp529
F-0.016069632023572922
aF-1.2563406229019165
aa(lp530
F0.04234664887189865
aF-1.2394335269927979
aa(lp531
F0.09867726266384125
aF-1.2226885557174683
aa(lp532
F0.1666737198829651
aF-1.2016876935958862
aa(lp533
F0.204751655459404
aF-1.1892788410186768
aa(lp534
F0.2544321119785309
aF-1.1725863218307495
aa(lp535
F0.3019137978553772
aF-1.1561352014541626
aa(lp536
F0.34860759973526
aF-1.1395485401153564
aa(lp537
F0.4047963619232178
aF-1.119066596031189
aa(lp538
F0.448180615901947
aF-1.102895736694336
aa(lp539
F0.49119314551353455
aF-1.0865710973739624
aa(lp540
F0.5319428443908691
aF-1.0708675384521484
aa(lp541
F0.573856770992279
aF-1.0544514656066895
aa(lp542
F0.614129900932312
aF-1.0385278463363647
aa(lp543
F0.6523569822311401
aF-1.0234094858169556
aa(lp544
F0.6899371147155762
aF-1.0084384679794312
aa(lp545
F0.7269574999809265
aF-0.9935734868049622
aa(lp546
F0.7630578279495239
aF-0.9789301156997681
aa(lp547
F0.7967273592948914
aF-0.9651938676834106
aa(lp548
F0.8288346529006958
aF-0.9520516991615295
aa(lp549
F0.8608555793762207
aF-0.9388832449913025
aa(lp550
F0.8906431794166565
aF-0.9266113042831421
aa(lp551
F0.9207260012626648
aF-0.9141734838485718
aa(lp552
F0.9508289098739624
aF-0.9016544222831726
aa(lp553
F0.9799878001213074
aF-0.8895373940467834
aa(lp554
F1.0144538879394531
aF-0.875191330909729
aa(lp555
F1.0342257022857666
aF-0.8669537901878357
aa(lp556
F1.0666630268096924
aF-0.8534963726997375
aa(lp557
F1.0917218923568726
aF-0.8431404829025269
aa(lp558
F1.1153450012207031
aF-0.8333780765533447
aa(lp559
F1.134933352470398
aF-0.8248947858810425
aa(lp560
F1.1520837545394897
aF-0.8171826601028442
aa(lp561
F1.1688581705093384
aF-0.8097347021102905
aa(lp562
F1.1860147714614868
aF-0.8022364377975464
aa(lp563
F1.2034441232681274
aF-0.7946974635124207
aa(lp564
F1.221957802772522
aF-0.7867588996887207
aa(lp565
F1.2406120300292969
aF-0.7788518667221069
aa(lp566
F1.2588484287261963
aF-0.771230936050415
aa(lp567
F1.276741623878479
aF-0.7638565301895142
aa(lp568
F1.2941603660583496
aF-0.75674968957901
aa(lp569
F1.3114185333251953
aF-0.7497885823249817
aa(lp570
F1.3283544778823853
aF-0.7430189251899719
aa(lp571
F1.347760558128357
aF-0.7353463768959045
aa(lp572
F1.363018274307251
aF-0.7294302582740784
aa(lp573
F1.3777964115142822
aF-0.7237963080406189
aa(lp574
F1.3919883966445923
aF-0.7184781432151794
aa(lp575
F1.4057235717773438
aF-0.7134020924568176
aa(lp576
F1.4189602136611938
aF-0.7085808515548706
aa(lp577
F1.4319005012512207
aF-0.7039422392845154
aa(lp578
F1.4441707134246826
aF-0.6996304988861084
aa(lp579
F1.4562007188796997
aF-0.6954983472824097
aa(lp580
F1.4706445932388306
aF-0.69064861536026
aa(lp581
F-0.8936931490898132
aF-1.4594861268997192
aa(lp582
F-0.8929281234741211
aF-1.4601552486419678
aa(lp583
F-0.8903740048408508
aF-1.4623346328735352
aa(lp584
F-0.8848016858100891
aF-1.4669438600540161
aa(lp585
F-0.8786931037902832
aF-1.4716905355453491
aa(lp586
F-0.8729516863822937
aF-1.475919485092163
aa(lp587
F-0.8643666505813599
aF-1.4818943738937378
aa(lp588
F-0.8525137901306152
aF-1.4897546768188477
aa(lp589
F-0.8455274701118469
aF-1.4941269159317017
aa(lp590
F-0.8340385556221008
aF-1.5009490251541138
aa(lp591
F-0.8205835819244385
aF-1.5085281133651733
aa(lp592
F-0.8076743483543396
aF-1.5154324769973755
aa(lp593
F-0.7963027954101562
aF-1.5211988687515259
aa(lp594
F-0.7852351665496826
aF-1.5265169143676758
aa(lp595
F-0.7740030884742737
aF-1.5316596031188965
aa(lp596
F-0.7625693678855896
aF-1.5366472005844116
aa(lp597
F-0.7499620318412781
aF-1.5418864488601685
aa(lp598
F-0.7365338206291199
aF-1.547247290611267
aa(lp599
F-0.7180129289627075
aF-1.5543417930603027
aa(lp600
F-0.7041414380073547
aF-1.5596046447753906
aa(lp601
F-0.693835973739624
aF-1.563435435295105
aa(lp602
F-0.6831114292144775
aF-1.5673290491104126
aa(lp603
F-0.6738843321800232
aF-1.5706456899642944
aa(lp604
F-0.6640816926956177
aF-1.5740803480148315
aa(lp605
F-0.6561945676803589
aF-1.5767998695373535
aa(lp606
F-0.6462699770927429
aF-1.5801784992218018
aa(lp607
F-0.6371268033981323
aF-1.5832445621490479
aa(lp608
F-0.6286344528198242
aF-1.5860480070114136
aasI5
(lp609
(lp610
F-4.138494968414307
aF-3.125080108642578
aa(lp611
F-3.593062162399292
aF-3.5481717586517334
aa(lp612
F-3.5957295894622803
aF-3.5494019985198975
aa(lp613
F-3.5948493480682373
aF-3.5490095615386963
aa(lp614
F-3.5857059955596924
aF-3.5451290607452393
aa(lp615
F-3.570704460144043
aF-3.5401124954223633
aa(lp616
F-3.5504140853881836
aF-3.5351035594940186
aa(lp617
F-3.5225484371185303
aF-3.5297696590423584
aa(lp618
F-3.4863462448120117
aF-3.525073289871216
aa(lp619
F-3.4423348903656006
aF-3.5216140747070312
aa(lp620
F-3.3907620906829834
aF-3.519672155380249
aa(lp621
F-3.3342435359954834
aF-3.5190200805664062
aa(lp622
F-3.275165557861328
aF-3.516777992248535
aa(lp623
F-3.197012424468994
aF-3.5085291862487793
aa(lp624
F-3.132561683654785
aF-3.4970030784606934
aa(lp625
F-3.0808987617492676
aF-3.4849090576171875
aa(lp626
F-3.012094497680664
aF-3.4657468795776367
aa(lp627
F-2.9594290256500244
aF-3.4488089084625244
aa(lp628
F-2.869539499282837
aF-3.4155826568603516
aa(lp629
F-2.7986676692962646
aF-3.3851332664489746
aa(lp630
F-2.7289059162139893
aF-3.3518266677856445
aa(lp631
F-2.6583316326141357
aF-3.315063238143921
aa(lp632
F-2.5882437229156494
aF-3.275153160095215
aa(lp633
F-2.522494316101074
aF-3.234605312347412
aa(lp634
F-2.4579858779907227
aF-3.1920089721679688
aa(lp635
F-2.397294759750366
aF-3.1491189002990723
aa(lp636
F-2.3399899005889893
aF-3.106611728668213
aa(lp637
F-2.2841875553131104
aF-3.063328981399536
aa(lp638
F-2.2274153232574463
aF-3.017423629760742
aa(lp639
F-2.1711390018463135
aF-2.970097780227661
aa(lp640
F-2.1167235374450684
aF-2.9225564002990723
aa(lp641
F-2.063413381576538
aF-2.8744637966156006
aa(lp642
F-2.0096893310546875
aF-2.8249728679656982
aa(lp643
F-1.9586941003799438
aF-2.7770538330078125
aa(lp644
F-1.89260733127594
aF-2.7136499881744385
aa(lp645
F-1.8409417867660522
aF-2.6630377769470215
aa(lp646
F-1.7933812141418457
aF-2.615041494369507
aa(lp647
F-1.7323921918869019
aF-2.551785707473755
aa(lp648
F-1.6849360466003418
aF-2.501713275909424
aa(lp649
F-1.639615535736084
aF-2.453195095062256
aa(lp650
F-1.5938067436218262
aF-2.4035756587982178
aa(lp651
F-1.549535870552063
aF-2.3550713062286377
aa(lp652
F-1.5076557397842407
aF-2.3085498809814453
aa(lp653
F-1.454545259475708
aF-2.2485830783843994
aa(lp654
F-1.4221807718276978
aF-2.2116408348083496
aa(lp655
F-1.3785762786865234
aF-2.1614081859588623
aa(lp656
F-1.3351616859436035
aF-2.1108481884002686
aa(lp657
F-1.2932560443878174
aF-2.061582326889038
aa(lp658
F-1.2411911487579346
aF-1.999774694442749
aa(lp659
F-1.1999322175979614
aF-1.9503965377807617
aa(lp660
F-1.158049464225769
aF-1.8999494314193726
aa(lp661
F-1.1181315183639526
aF-1.8515534400939941
aa(lp662
F-1.077022910118103
aF-1.8014317750930786
aa(lp663
F-1.0373398065567017
aF-1.7528022527694702
aa(lp664
F-0.9982152581214905
aF-1.7045472860336304
aa(lp665
F-0.9591807126998901
aF-1.6561375856399536
aa(lp666
F-0.9202713370323181
aF-1.6076133251190186
aa(lp667
F-0.882326602935791
aF-1.5601921081542969
aa(lp668
F-0.8481371998786926
aF-1.5175968408584595
aa(lp669
F-0.8150568008422852
aF-1.4759395122528076
aa(lp670
F-0.7811225652694702
aF-1.4328359365463257
aa(lp671
F-0.7487398386001587
aF-1.3914271593093872
aa(lp672
F-0.7155449986457825
aF-1.3487050533294678
aa(lp673
F-0.6813783645629883
aF-1.3044538497924805
aa(lp674
F-0.6486595273017883
aF-1.261669635772705
aa(lp675
F-0.6094622015953064
aF-1.2096880674362183
aa(lp676
F-0.5859809517860413
aF-1.1783201694488525
aa(lp677
F-0.5470544099807739
aF-1.1259651184082031
aa(lp678
F-0.5160506963729858
aF-1.083927035331726
aa(lp679
F-0.4870949685573578
aF-1.044468641281128
aa(lp680
F-0.46263861656188965
aF-1.0107752084732056
aa(lp681
F-0.4392138421535492
aF-0.9783005118370056
aa(lp682
F-0.4157152771949768
aF-0.9457394480705261
aa(lp683
F-0.3922465741634369
aF-0.9132534265518188
aa(lp684
F-0.3680635094642639
aF-0.8797809481620789
aa(lp685
F-0.34314268827438354
aF-0.845356822013855
aa(lp686
F-0.32060202956199646
aF-0.8141835927963257
aa(lp687
F-0.2986104190349579
aF-0.7838335633277893
aa(lp688
F-0.27669215202331543
aF-0.7536266446113586
aa(lp689
F-0.25481367111206055
aF-0.7235219478607178
aa(lp690
F-0.23287411034107208
aF-0.693345308303833
aa(lp691
F-0.21073995530605316
aF-0.6629417538642883
aa(lp692
F-0.18278947472572327
aF-0.6245810985565186
aa(lp693
F-0.16038861870765686
aF-0.5938069224357605
aa(lp694
F-0.13804814219474792
aF-0.5631175637245178
aa(lp695
F-0.11569519340991974
aF-0.5323716998100281
aa(lp696
F-0.09313346445560455
aF-0.5013346076011658
aa(lp697
F-0.07034850865602493
aF-0.469986230134964
aa(lp698
F-0.04750237986445427
aF-0.43846395611763
aa(lp699
F-0.025051435455679893
aF-0.40744146704673767
aa(lp700
F-0.0029250301886349916
aF-0.37681815028190613
aa(lp701
F0.024109231308102608
aF-0.3392776548862457
aa(lp702
F0.045562952756881714
aF-0.30943968892097473
aa(lp703
F0.06142568215727806
aF-0.28734564781188965
aa(lp704
F0.08727777004241943
aF-0.25127166509628296
aa(lp705
F0.10831451416015625
aF-0.22188107669353485
aa(lp706
F0.12902118265628815
aF-0.19287964701652527
aa(lp707
F0.14474406838417053
aF-0.17081402242183685
aa(lp708
F0.16549687087535858
aF-0.14165669679641724
aa(lp709
F0.19101373851299286
aF-0.10569842159748077
aa(lp710
F0.2060566395521164
aF-0.08444193750619888
aa(lp711
F0.2268299013376236
aF-0.05503621697425842
aa(lp712
F0.24767473340034485
aF-0.025412213057279587
aa(lp713
F0.268496572971344
aF0.004284124821424484
aa(lp714
F0.2892710864543915
aF0.03400455415248871
aa(lp715
F0.309122234582901
aF0.06253861635923386
aa(lp716
F0.33027195930480957
aF0.09305872023105621
aa(lp717
F0.35375919938087463
aF0.12772706151008606
aa(lp718
F0.3782901167869568
aF0.16451232135295868
aa(lp719
F0.4001922607421875
aF0.19773003458976746
aa(lp720
F0.4272025525569916
aF0.23903758823871613
aa(lp721
F0.44912081956863403
aF0.27285754680633545
aa(lp722
F0.46926701068878174
aF0.3044164180755615
aa(lp723
F0.491897851228714
aF0.34022578597068787
aa(lp724
F0.5137795805931091
aF0.37515249848365784
aa(lp725
F0.5373075008392334
aF0.41293832659721375
aa(lp726
F0.5557569265365601
aF0.4418688416481018
aa(lp727
F0.5807270407676697
aF0.48099759221076965
aa(lp728
F0.6033874750137329
aF0.5170333385467529
aa(lp729
F0.6261307597160339
aF0.5538856983184814
aasI6
(lp730
(lp731
F1.7948386669158936
aF-0.38246089220046997
aa(lp732
F1.950284481048584
aF-1.2581442594528198
aa(lp733
F1.9480129480361938
aF-1.2593706846237183
aa(lp734
F1.9467799663543701
aF-1.2600938081741333
aa(lp735
F1.9464988708496094
aF-1.2602763175964355
aa(lp736
F1.9454361200332642
aF-1.2610315084457397
aa(lp737
F1.9439177513122559
aF-1.2621805667877197
aa(lp738
F1.943043828010559
aF-1.26287043094635
aa(lp739
F1.946679949760437
aF-1.259934425354004
aa(lp740
F1.955052137374878
aF-1.253238320350647
aa(lp741
F1.966752052307129
aF-1.2434946298599243
aa(lp742
F1.9785295724868774
aF-1.2330962419509888
aa(lp743
F1.9906327724456787
aF-1.2216534614562988
aa(lp744
F2.0063982009887695
aF-1.2057799100875854
aa(lp745
F2.0169448852539062
aF-1.1945641040802002
aa(lp746
F2.0211987495422363
aF-1.1898221969604492
aa(lp747
F2.0278549194335938
aF-1.1819913387298584
aa(lp748
F2.0348873138427734
aF-1.173336386680603
aa(lp749
F2.046428918838501
aF-1.1583707332611084
aa(lp750
F2.055732011795044
aF-1.1455835103988647
aa(lp751
F2.065403699874878
aF-1.131655216217041
aa(lp752
F2.0750718116760254
aF-1.117031455039978
aa(lp753
F2.0847890377044678
aF-1.1015567779541016
aa(lp754
F2.093229293823242
aF-1.0873825550079346
aa(lp755
F2.0999505519866943
aF-1.0749677419662476
aa(lp756
F2.106443405151367
aF-1.0620890855789185
aa(lp757
F2.1129305362701416
aF-1.048380970954895
aa(lp758
F2.1196272373199463
aF-1.0332942008972168
aa(lp759
F2.126457452774048
aF-1.0168498754501343
aa(lp760
F2.1329641342163086
aF-0.9999963641166687
aa(lp761
F2.13917875289917
aF-0.9825834035873413
aa(lp762
F2.1452796459198
aF-0.963938295841217
aa(lp763
F2.1525611877441406
aF-0.9397822618484497
aa(lp764
F2.1591691970825195
aF-0.9160048365592957
aa(lp765
F2.1672980785369873
aF-0.8838606476783752
aa(lp766
F2.173304796218872
aF-0.8572084903717041
aa(lp767
F2.178597927093506
aF-0.8303719162940979
aa(lp768
F2.184173583984375
aF-0.796425998210907
aa(lp769
F2.1879403591156006
aF-0.7678647637367249
aa(lp770
F2.191075325012207
aF-0.735768735408783
aa(lp771
F2.193547248840332
aF-0.7009620666503906
aa(lp772
F2.195157051086426
aF-0.6652352213859558
aa(lp773
F2.1960277557373047
aF-0.6285954713821411
aa(lp774
F2.196145534515381
aF-0.5869086980819702
aa(lp775
F2.195803642272949
aF-0.5653950572013855
aa(lp776
F2.1949610710144043
aF-0.5374242067337036
aa(lp777
F2.193974494934082
aF-0.5130615830421448
aa(lp778
F2.192702531814575
aF-0.489985853433609
aa(lp779
F2.190725088119507
aF-0.4620535969734192
aa(lp780
F2.1889238357543945
aF-0.4410584270954132
aa(lp781
F2.1868743896484375
aF-0.4197790026664734
aa(lp782
F2.184674024581909
aF-0.39918652176856995
aa(lp783
F2.1822824478149414
aF-0.3789249062538147
aa(lp784
F2.1800084114074707
aF-0.3614415228366852
aa(lp785
F2.1777048110961914
aF-0.344638854265213
aa(lp786
F2.175321340560913
aF-0.3277827501296997
aa(lp787
F2.172872304916382
aF-0.3110813498497009
aa(lp788
F2.1704444885253906
aF-0.2950877547264099
aa(lp789
F2.168250799179077
aF-0.28101831674575806
aa(lp790
F2.1660335063934326
aF-0.2669652998447418
aa(lp791
F2.1638901233673096
aF-0.2534528970718384
aa(lp792
F2.162022113800049
aF-0.24175265431404114
aa(lp793
F2.160108804702759
aF-0.22973179817199707
aa(lp794
F2.1581432819366455
aF-0.21740537881851196
aa(lp795
F2.1564271450042725
aF-0.20667149126529694
aa(lp796
F2.1545331478118896
aF-0.19468358159065247
aa(lp797
F2.1534323692321777
aF-0.18763777613639832
aa(lp798
F0.7888078093528748
aF-1.4109907150268555
aa(lp799
F0.7877210378646851
aF-1.4112375974655151
aa(lp800
F0.7862123847007751
aF-1.4115369319915771
aa(lp801
F0.7841746211051941
aF-1.4120280742645264
aa(lp802
F0.7836705446243286
aF-1.4121670722961426
aa(lp803
F0.7831060886383057
aF-1.4123300313949585
aa(lp804
F0.7827485799789429
aF-1.4124372005462646
aa(lp805
F0.7825033664703369
aF-1.4125133752822876
aa(lp806
F0.7826223373413086
aF-1.4124716520309448
aa(lp807
F0.7859621047973633
aF-1.4113962650299072
aa(lp808
F0.7968666553497314
aF-1.408089518547058
aa(lp809
F0.8152362108230591
aF-1.4027152061462402
aa(lp810
F0.833968997001648
aF-1.3972523212432861
aa(lp811
F0.852470874786377
aF-1.3918650150299072
aa(lp812
F0.8695783615112305
aF-1.3868482112884521
aa(lp813
F0.8822712898254395
aF-1.382953405380249
aa(lp814
F0.8866656422615051
aF-1.3815115690231323
aa(lp815
F0.8912171125411987
aF-1.37996244430542
aa(lp816
F0.8960274457931519
aF-1.378265619277954
aa(lp817
F0.900156557559967
aF-1.3767573833465576
aa(lp818
F0.9039843678474426
aF-1.3753070831298828
aa(lp819
F0.907958447933197
aF-1.3737455606460571
aa(lp820
F0.9109768271446228
aF-1.3725160360336304
aa(lp821
F0.912538468837738
aF-1.3718467950820923
aa(lp822
F0.9148740172386169
aF-1.370805025100708
aa(lp823
F0.9171531796455383
aF-1.3697477579116821
aa(lp824
F0.919028103351593
aF-1.368850827217102
aa(lp825
F0.9224073886871338
aF-1.3671786785125732
aa(lp826
F0.9254142045974731
aF-1.3656346797943115
aa(lp827
F0.9287399053573608
aF-1.363862156867981
aa(lp828
F0.9314014315605164
aF-1.3624014854431152
aa(lp829
F0.9348372220993042
aF-1.3604731559753418
aa(lp830
F0.9405730366706848
aF-1.3571511507034302
aa(lp831
F0.945183277130127
aF-1.3544011116027832
aa(lp832
F0.9522302746772766
aF-1.3500683307647705
aa(lp833
F0.9615501761436462
aF-1.3441200256347656
aa(lp834
F0.9699124693870544
aF-1.3386216163635254
aa(lp835
F0.9756534099578857
aF-1.3347352743148804
aa(lp836
F0.9813972115516663
aF-1.3307175636291504
aa(lp837
F0.9877638220787048
aF-1.3261215686798096
aa(lp838
F0.9945662617683411
aF-1.3210405111312866
aa(lp839
F1.001084804534912
aF-1.3159797191619873
aa(lp840
F1.008132815361023
aF-1.310246467590332
aa(lp841
F1.0184013843536377
aF-1.301499843597412
aa(lp842
F1.0271064043045044
aF-1.2937653064727783
aa(lp843
F1.0350922346115112
aF-1.2863893508911133
aa(lp844
F1.04435396194458
aF-1.2774982452392578
aa(lp845
F1.0536049604415894
aF-1.2682609558105469
aa(lp846
F1.0628776550292969
aF-1.2585971355438232
aa(lp847
F1.0703996419906616
aF-1.2505086660385132
aa(lp848
F1.0818344354629517
aF-1.2377434968948364
aa(lp849
F1.0939841270446777
aF-1.22352135181427
aa(lp850
F1.1060454845428467
aF-1.208655834197998
aasI7
(lp851
(lp852
F4.409396648406982
aF-3.7805025577545166
aa(lp853
F2.360435724258423
aF-2.747673988342285
aa(lp854
F2.3626351356506348
aF-2.750767230987549
aa(lp855
F2.359285593032837
aF-2.7451188564300537
aa(lp856
F2.3520724773406982
aF-2.730573892593384
aa(lp857
F2.342372417449951
aF-2.7077255249023438
aa(lp858
F2.3313941955566406
aF-2.679222822189331
aa(lp859
F2.3213157653808594
aF-2.6497068405151367
aa(lp860
F2.311967611312866
aF-2.6187009811401367
aa(lp861
F2.304032325744629
aF-2.5882699489593506
aa(lp862
F2.297231435775757
aF-2.557558059692383
aa(lp863
F2.292280912399292
aF-2.5301687717437744
aa(lp864
F2.289454221725464
aF-2.511190414428711
aa(lp865
F2.2873613834381104
aF-2.49039888381958
aa(lp866
F2.286531448364258
aF-2.474360704421997
aa(lp867
F2.286320924758911
aF-2.462005853652954
aa(lp868
F2.28666090965271
aF-2.4457602500915527
aa(lp869
F2.287332057952881
aF-2.43410325050354
aa(lp870
F2.2890841960906982
aF-2.4165022373199463
aa(lp871
F2.2908267974853516
aF-2.4043819904327393
aa(lp872
F2.292814016342163
aF-2.393448829650879
aa(lp873
F2.2950472831726074
aF-2.383185625076294
aa(lp874
F2.297497034072876
aF-2.3738691806793213
aa(lp875
F2.299712657928467
aF-2.366699457168579
aa(lp876
F2.3011298179626465
aF-2.362661123275757
aa(lp877
F2.3030972480773926
aF-2.357724189758301
aa(lp878
F2.304659128189087
aF-2.354217767715454
aa(lp879
F2.305880069732666
aF-2.351691484451294
aa(lp880
F2.305978536605835
aF-2.3515284061431885
aa(lp881
F2.304220199584961
aF-2.3544857501983643
aa(lp882
F2.3008899688720703
aF-2.359558343887329
aa(lp883
F2.295952796936035
aF-2.3664169311523438
aa(lp884
F2.291640281677246
aF-2.371829032897949
aa(lp885
F2.285630226135254
aF-2.3786439895629883
aa(lp886
F2.273545742034912
aF-2.390779733657837
aa(lp887
F2.2620129585266113
aF-2.4009761810302734
aa(lp888
F2.246716022491455
aF-2.4126574993133545
aa(lp889
F2.2191522121429443
aF-2.430554151535034
aa(lp890
F2.1942975521087646
aF-2.444728136062622
aa(lp891
F2.167644739151001
aF-2.458189010620117
aa(lp892
F2.139157772064209
aF-2.4708542823791504
aa(lp893
F2.1078178882598877
aF-2.4828734397888184
aa(lp894
F2.0674731731414795
aF-2.4961438179016113
aa(lp895
F2.0127224922180176
aF-2.511108160018921
aa(lp896
F1.9790135622024536
aF-2.5185348987579346
aa(lp897
F1.9332307577133179
aF-2.5267486572265625
aa(lp898
F1.887420654296875
aF-2.532780885696411
aa(lp899
F1.8383581638336182
aF-2.536980390548706
aa(lp900
F1.774664044380188
aF-2.5394158363342285
aa(lp901
F1.7204471826553345
aF-2.5389821529388428
aa(lp902
F1.6645572185516357
aF-2.5363645553588867
aa(lp903
F1.609824299812317
aF-2.531752109527588
aa(lp904
F1.5532125234603882
aF-2.525075912475586
aa(lp905
F1.499253511428833
aF-2.516993761062622
aa(lp906
F1.4460300207138062
aF-2.507307291030884
aa(lp907
F1.3926842212677002
aF-2.4959959983825684
aa(lp908
F1.3389959335327148
aF-2.4830970764160156
aa(lp909
F1.286992073059082
aF-2.4691269397735596
aa(lp910
F1.2384073734283447
aF-2.4547359943389893
aa(lp911
F1.1919398307800293
aF-2.4398353099823
aa(lp912
F1.1458549499511719
aF-2.4239416122436523
aa(lp913
F1.102830171585083
aF-2.4081315994262695
aa(lp914
F1.0586092472076416
aF-2.3909411430358887
aa(lp915
F1.013076663017273
aF-2.3723063468933105
aa(lp916
F0.9697045087814331
aF-2.353637456893921
aa(lp917
F0.9166643023490906
aF-2.329596757888794
aa(lp918
F0.8849968314170837
aF-2.3146369457244873
aa(lp919
F0.8324612975120544
aF-2.2888662815093994
aa(lp920
F0.7907168865203857
aF-2.2675585746765137
aa(lp921
F0.7511776685714722
aF-2.2465620040893555
aa(lp922
F0.7200860977172852
aF-2.2291016578674316
aa(lp923
F0.6943019032478333
aF-2.2148613929748535
aa(lp924
F0.6719151735305786
aF-2.202603816986084
aa(lp925
F0.6500062942504883
aF-2.1902692317962646
aa(lp926
F0.6277323365211487
aF-2.177386999130249
aa(lp927
F0.6058540344238281
aF-2.1644198894500732
aa(lp928
F0.5856528282165527
aF-2.152183771133423
aa(lp929
F0.5662087798118591
aF-2.140105724334717
aa(lp930
F0.5472002625465393
aF-2.1280109882354736
aa(lp931
F0.528248131275177
aF-2.115658760070801
aa(lp932
F0.5095579028129578
aF-2.103186845779419
aa(lp933
F0.49108362197875977
aF-2.0905661582946777
aa(lp934
F0.4678196609020233
aF-2.0742971897125244
aa(lp935
F0.4491225779056549
aF-2.060908079147339
aa(lp936
F0.4305930435657501
aF-2.0473601818084717
aa(lp937
F0.4123643934726715
aF-2.0337793827056885
aa(lp938
F0.39408373832702637
aF-2.019902467727661
aa(lp939
F0.37565597891807556
aF-2.0056514739990234
aa(lp940
F0.3572078347206116
aF-1.991121768951416
aa(lp941
F0.3390774130821228
aF-1.9766137599945068
aa(lp942
F0.32113897800445557
aF-1.962013840675354
aa(lp943
F0.29880812764167786
aF-1.9434982538223267
aa(lp944
F0.2808954119682312
aF-1.928368330001831
aa(lp945
F0.2678215503692627
aF-1.917187213897705
aa(lp946
F0.2467069923877716
aF-1.8988721370697021
aa(lp947
F0.22953711450099945
aF-1.8837170600891113
aa(lp948
F0.2117956429719925
aF-1.8678244352340698
aa(lp949
F0.19754399359226227
aF-1.8549078702926636
aa(lp950
F0.17931023240089417
aF-1.8382110595703125
aa(lp951
F0.15756478905677795
aF-1.8180081844329834
aa(lp952
F0.14468178153038025
aF-1.8058830499649048
aa(lp953
F0.12696264684200287
aF-1.78904390335083
aa(lp954
F0.10909073799848557
aF-1.7719149589538574
aa(lp955
F0.0911126360297203
aF-1.7544962167739868
aa(lp956
F0.07278553396463394
aF-1.7364848852157593
aa(lp957
F0.055376920849084854
aF-1.7192137241363525
aa(lp958
F0.03686089813709259
aF-1.700692892074585
aa(lp959
F0.017426669597625732
aF-1.6810799837112427
aa(lp960
F-0.0031614843755960464
aF-1.6600944995880127
aa(lp961
F-0.024496298283338547
aF-1.638116717338562
aa(lp962
F-0.051025159657001495
aF-1.610511064529419
aa(lp963
F-0.07387074083089828
aF-1.586335301399231
aa(lp964
F-0.09671026468276978
aF-1.5618842840194702
aa(lp965
F-0.12351289391517639
aF-1.53258216381073
aa(lp966
F-0.14906127750873566
aF-1.5036954879760742
aa(lp967
F-0.1729763299226761
aF-1.4757988452911377
aa(lp968
F-0.18558697402477264
aF-1.460809588432312
aa(lp969
F-0.1992747187614441
aF-1.4449838399887085
aa(lp970
F-0.21246562898159027
aF-1.4306122064590454
aa(lp971
F-0.22326530516147614
aF-1.4191248416900635
aas.