ccollections
defaultdict
p0
(c__builtin__
list
p1
tp2
Rp3
I0
(lp4
(lp5
F-1.593040943145752
aF-3.588773012161255
aa(lp6
F0.09013817459344864
aF-2.997814893722534
aa(lp7
F0.1636003702878952
aF-2.955524444580078
aa(lp8
F0.2942345440387726
aF-2.8058345317840576
aa(lp9
F0.447409451007843
aF-2.485342502593994
aa(lp10
F0.5252931714057922
aF-2.0522093772888184
aa(lp11
F0.5135976076126099
aF-1.7091701030731201
aa(lp12
F0.4605697691440582
aF-1.5161198377609253
aa(lp13
F0.3391859829425812
aF-1.2822808027267456
aa(lp14
F0.20326322317123413
aF-1.0434328317642212
aa(lp15
F0.0848296508193016
aF-0.8267295360565186
aa(lp16
F-0.01794791780412197
aF-0.5944406390190125
aa(lp17
F-0.08047065138816833
aF-0.4353351891040802
aa(lp18
F-0.18603895604610443
aF-0.23325461149215698
aa(lp19
F-0.22958366572856903
aF-0.15158021450042725
aa(lp20
F-0.2303425669670105
aF-0.1496719866991043
aa(lp21
F-0.23961219191551208
aF-0.12058927863836288
aa(lp22
F-0.2421288788318634
aF-0.11499454081058502
aa(lp23
F-0.20490293204784393
aF-0.16588233411312103
aa(lp24
F-0.24293658137321472
aF-0.13862326741218567
aa(lp25
F-0.5502719283103943
aF0.04704947769641876
aa(lp26
F-0.8815568685531616
aF0.2441936880350113
aa(lp27
F-1.2599011659622192
aF0.5783901214599609
aa(lp28
F-1.5038999319076538
aF0.8746059536933899
aa(lp29
F-1.7093132734298706
aF1.2972832918167114
aa(lp30
F-1.8396539688110352
aF1.783393144607544
aa(lp31
F-1.9436137676239014
aF2.285034418106079
aa(lp32
F-2.026557683944702
aF2.6703548431396484
aa(lp33
F-1.9963937997817993
aF3.079634428024292
aa(lp34
F-1.8672624826431274
aF3.457869052886963
aasI1
(lp35
(lp36
F-7.627457141876221
aF3.775444746017456
aa(lp37
F-0.05749763920903206
aF2.9080233573913574
aa(lp38
F-0.06859412044286728
aF2.748809576034546
aa(lp39
F-0.0057627665810287
aF2.312871217727661
aa(lp40
F0.08955714851617813
aF1.904746651649475
aa(lp41
F0.20479480922222137
aF1.5671119689941406
aa(lp42
F0.3216826319694519
aF1.3049949407577515
aa(lp43
F0.4215221703052521
aF1.1293625831604004
aa(lp44
F0.4506872296333313
aF1.0882925987243652
aa(lp45
F0.4015079736709595
aF1.1302907466888428
aa(lp46
F0.3053358495235443
aF1.2119150161743164
aa(lp47
F0.20300355553627014
aF1.3272417783737183
aa(lp48
F0.19369542598724365
aF1.34512460231781
aa(lp49
F0.22804081439971924
aF1.2628135681152344
aa(lp50
F0.2680389881134033
aF1.1860122680664062
aa(lp51
F0.26427850127220154
aF1.2065129280090332
aa(lp52
F0.2689811885356903
aF1.1749236583709717
aa(lp53
F0.2993418276309967
aF1.088607668876648
aa(lp54
F0.30470097064971924
aF1.077237844467163
aa(lp55
F0.31012392044067383
aF1.0286415815353394
aa(lp56
F0.3191429674625397
aF1.0004431009292603
aa(lp57
F0.325080007314682
aF0.952416181564331
aa(lp58
F0.33250951766967773
aF0.9337151646614075
aa(lp59
F-0.05723774433135986
aF2.918807029724121
aa(lp60
F-0.13756059110164642
aF2.7402515411376953
aa(lp61
F-0.15335509181022644
aF2.479032278060913
aa(lp62
F-0.09415166825056076
aF2.1499197483062744
aa(lp63
F0.01644047722220421
aF1.7894319295883179
aa(lp64
F0.20273707807064056
aF1.3442226648330688
aa(lp65
F0.429078072309494
aF0.8711575865745544
aasI2
(lp66
(lp67
F-2.220487117767334
aF0.2190927118062973
aa(lp68
F3.0065174102783203
aF-0.010201501660048962
aa(lp69
F3.0291876792907715
aF-0.05524318665266037
aa(lp70
F2.890698194503784
aF0.10514520853757858
aa(lp71
F2.6239733695983887
aF0.27237844467163086
aa(lp72
F2.248817205429077
aF0.36872342228889465
aa(lp73
F1.8300670385360718
aF0.36991605162620544
aa(lp74
F1.5614954233169556
aF0.3375432789325714
aa(lp75
F1.457754135131836
aF0.30025848746299744
aa(lp76
F1.4028890132904053
aF0.2758665382862091
aa(lp77
F1.2073770761489868
aF0.22597579658031464
aa(lp78
F1.110869288444519
aF0.19174431264400482
aa(lp79
F0.9437652230262756
aF0.10008177906274796
aa(lp80
F0.7218811511993408
aF-0.019019676372408867
aa(lp81
F0.6312891244888306
aF-0.0657082125544548
aa(lp82
F0.6014524698257446
aF-0.07045935839414597
aa(lp83
F0.5501853227615356
aF-0.07468408346176147
aa(lp84
F0.5110277533531189
aF-0.08659642189741135
aa(lp85
F0.4569314420223236
aF-0.09352882206439972
aa(lp86
F0.42909976840019226
aF-0.10178346931934357
aa(lp87
F0.3786586821079254
aF-0.1071905866265297
aa(lp88
F0.35645896196365356
aF-0.11772313714027405
aa(lp89
F0.24788111448287964
aF-0.2252911776304245
aa(lp90
F0.020636316388845444
aF-0.5815075039863586
aa(lp91
F-0.11370217800140381
aF-0.8801143169403076
aa(lp92
F-0.18680241703987122
aF-1.0162829160690308
aa(lp93
F-0.32198935747146606
aF-1.1682463884353638
aa(lp94
F-0.5411058068275452
aF-1.3212816715240479
aa(lp95
F-0.8902052640914917
aF-1.458552360534668
aa(lp96
F-1.3636012077331543
aF-1.5537570714950562
aasI3
(lp97
(lp98
F4.014949798583984
aF17.114124298095703
aa(lp99
F-2.851820945739746
aF0.010311518795788288
aa(lp100
F-2.7153570652008057
aF0.023127740249037743
aa(lp101
F-2.297386646270752
aF0.0777069702744484
aa(lp102
F-1.8787122964859009
aF0.14750109612941742
aa(lp103
F-1.4478421211242676
aF0.23635753989219666
aa(lp104
F-1.0738195180892944
aF0.3168554902076721
aa(lp105
F-0.8468206524848938
aF0.37377381324768066
aa(lp106
F-0.615974485874176
aF0.45794057846069336
aa(lp107
F-0.3970988392829895
aF0.5427594184875488
aa(lp108
F-0.39865541458129883
aF0.5410290360450745
aa(lp109
F-0.44249945878982544
aF0.5096749067306519
aa(lp110
F-0.3702264726161957
aF0.5712786912918091
aa(lp111
F-0.3251405358314514
aF0.6058221459388733
aa(lp112
F-0.32240861654281616
aF0.6078993082046509
aa(lp113
F-0.31824737787246704
aF0.6109997630119324
aa(lp114
F-0.31377139687538147
aF0.6143218278884888
aa(lp115
F-0.3090081810951233
aF0.6178156733512878
aa(lp116
F-0.30394694209098816
aF0.6215484142303467
aa(lp117
F-0.29899275302886963
aF0.6251934766769409
aa(lp118
F-0.29380011558532715
aF0.629005491733551
aa(lp119
F-0.18376366794109344
aF0.7141943573951721
aa(lp120
F-0.05823484808206558
aF0.8181694746017456
aa(lp121
F-2.878448486328125
aF0.0024184570647776127
aa(lp122
F-2.5097908973693848
aF0.024664180353283882
aa(lp123
F-2.107473611831665
aF0.07460836321115494
aa(lp124
F-1.8283377885818481
aF0.12348168343305588
aa(lp125
F-1.608901858329773
aF0.19246257841587067
aa(lp126
F-1.289415717124939
aF0.3165903687477112
aa(lp127
F-0.9757228493690491
aF0.4197215437889099
aas.