ccollections
defaultdict
p0
(c__builtin__
list
p1
tp2
Rp3
I0
(lp4
(lp5
F0.03850163519382477
aF-2.9988820552825928
aa(lp6
F0.07588163763284683
aF-2.9964702129364014
aa(lp7
F0.09918360412120819
aF-2.9943485260009766
aa(lp8
F0.1109328493475914
aF-2.9931020736694336
aa(lp9
F0.10742512345314026
aF-2.993661880493164
aa(lp10
F0.0900035947561264
aF-2.9978561401367188
aa(lp11
F0.08973351120948792
aF-2.997971534729004
aa(lp12
F0.10734563320875168
aF-2.9911015033721924
aa(lp13
F0.12580066919326782
aF-2.9819202423095703
aa(lp14
F0.14758041501045227
aF-2.968134641647339
aa(lp15
F0.1636003702878952
aF-2.955524444580078
aa(lp16
F0.1781456470489502
aF-2.9420299530029297
aa(lp17
F0.1957874745130539
aF-2.924243450164795
aa(lp18
F0.2249276340007782
aF-2.893035411834717
aa(lp19
F0.2563401460647583
aF-2.8570454120635986
aa(lp20
F0.2942345440387726
aF-2.8058345317840576
aa(lp21
F0.3262714147567749
aF-2.7546463012695312
aa(lp22
F0.3561650812625885
aF-2.7026333808898926
aa(lp23
F0.3936823606491089
aF-2.6284921169281006
aa(lp24
F0.42096394300460815
aF-2.56347918510437
aa(lp25
F0.447409451007843
aF-2.485342502593994
aa(lp26
F0.4696488380432129
aF-2.402043581008911
aa(lp27
F0.4877675175666809
aF-2.323551893234253
aa(lp28
F0.5049744844436646
aF-2.2307932376861572
aa(lp29
F0.5163748860359192
aF-2.1487417221069336
aa(lp30
F0.5252931714057922
aF-2.0522093772888184
aa(lp31
F0.5298672318458557
aF-1.957852840423584
aa(lp32
F0.5308998823165894
aF-1.8927898406982422
aa(lp33
F0.529059886932373
aF-1.8262449502944946
aa(lp34
F0.5226724743843079
aF-1.7628785371780396
aa(lp35
F0.5135976076126099
aF-1.7091701030731201
aa(lp36
F0.501534104347229
aF-1.6549376249313354
aa(lp37
F0.4872470498085022
aF-1.5991079807281494
aa(lp38
F0.4773240089416504
aF-1.5651506185531616
aa(lp39
F0.46753713488578796
aF-1.535256028175354
aa(lp40
F0.4605697691440582
aF-1.5161198377609253
aa(lp41
F0.4480574429035187
aF-1.4879635572433472
aa(lp42
F0.43062824010849
aF-1.4516240358352661
aa(lp43
F0.4044102132320404
aF-1.4013174772262573
aa(lp44
F0.3753891885280609
aF-1.3482692241668701
aa(lp45
F0.3391859829425812
aF-1.2822808027267456
aa(lp46
F0.307565301656723
aF-1.2257928848266602
aa(lp47
F0.2833847999572754
aF-1.1839038133621216
aa(lp48
F0.25498276948928833
aF-1.1344135999679565
aa(lp49
F0.23115698993206024
aF-1.0926344394683838
aa(lp50
F0.20301418006420135
aF-1.042992115020752
aa(lp51
F0.17962875962257385
aF-1.0014729499816895
aa(lp52
F0.15611635148525238
aF-0.9591497182846069
aa(lp53
F0.133754163980484
aF-0.9182795286178589
aa(lp54
F0.11192747205495834
aF-0.877816379070282
aa(lp55
F0.0848296508193016
aF-0.8267295360565186
aa(lp56
F0.05899077653884888
aF-0.7767655253410339
aa(lp57
F0.03810786083340645
aF-0.733109712600708
aa(lp58
F0.01855502650141716
aF-0.6888428926467896
aa(lp59
F0.0007138247019611299
aF-0.6449248790740967
aa(lp60
F-0.01794791780412197
aF-0.5944406390190125
aa(lp61
F-0.03422030061483383
aF-0.5485144257545471
aa(lp62
F-0.05020344257354736
aF-0.505847692489624
aa(lp63
F-0.05954980105161667
aF-0.48175692558288574
aa(lp64
F-0.06989424675703049
aF-0.45761963725090027
aa(lp65
F-0.08047065138816833
aF-0.4353351891040802
aa(lp66
F-0.09369444102048874
aF-0.40949293971061707
aa(lp67
F-0.11625882983207703
aF-0.3671096861362457
aa(lp68
F-0.1408601999282837
aF-0.320655882358551
aa(lp69
F-0.16135521233081818
aF-0.28135108947753906
aa(lp70
F-0.18603895604610443
aF-0.23325461149215698
aa(lp71
F-0.207948237657547
aF-0.19071733951568604
aa(lp72
F-0.21931493282318115
aF-0.16956232488155365
aa(lp73
F-0.22828656435012817
aF-0.15336956083774567
aa(lp74
F-0.23077857494354248
aF-0.1490173190832138
aa(lp75
F-0.22958366572856903
aF-0.15158021450042725
aa(lp76
F-0.23039519786834717
aF-0.14961634576320648
aa(lp77
F-0.23037537932395935
aF-0.1496167778968811
aa(lp78
F-0.23031343519687653
aF-0.14980819821357727
aa(lp79
F-0.23032106459140778
aF-0.14977174997329712
aa(lp80
F-0.2303425669670105
aF-0.1496719866991043
aa(lp81
F-0.23129776120185852
aF-0.14530861377716064
aa(lp82
F-0.2328847050666809
aF-0.13909998536109924
aa(lp83
F-0.23471443355083466
aF-0.13313840329647064
aa(lp84
F-0.23721079528331757
aF-0.12627370655536652
aa(lp85
F-0.23961219191551208
aF-0.12058927863836288
aa(lp86
F-0.24232710897922516
aF-0.114809051156044
aa(lp87
F-0.2434087097644806
aF-0.11277665942907333
aa(lp88
F-0.2435368150472641
aF-0.11255080252885818
aa(lp89
F-0.24290186166763306
aF-0.11365824937820435
aa(lp90
F-0.2419716864824295
aF-0.1152641773223877
aa(lp91
F-0.24060313403606415
aF-0.1175680086016655
aa(lp92
F-0.23607800900936127
aF-0.12444355338811874
aa(lp93
F-0.22793354094028473
aF-0.13642694056034088
aa(lp94
F-0.21678857505321503
aF-0.1514151394367218
aa(lp95
F-0.20479314029216766
aF-0.16600950062274933
aa(lp96
F-0.19594618678092957
aF-0.17581318318843842
aa(lp97
F-0.1946461796760559
aF-0.17726878821849823
aa(lp98
F-0.20341891050338745
aF-0.16933752596378326
aa(lp99
F-0.218472421169281
aF-0.15715625882148743
aa(lp100
F-0.24880920350551605
aF-0.1342976838350296
aa(lp101
F-0.28564023971557617
aF-0.1081923246383667
aa(lp102
F-0.33774906396865845
aF-0.07377991825342178
aa(lp103
F-0.4019634425640106
aF-0.03431403264403343
aa(lp104
F-0.45705416798591614
aF-0.00274272751994431
aa(lp105
F-0.5502719283103943
aF0.04704947769641876
aa(lp106
F-0.6327359676361084
aF0.08964230120182037
aa(lp107
F-0.7085400819778442
aF0.129022017121315
aa(lp108
F-0.766064465045929
aF0.1630987972021103
aa(lp109
F-0.8243018984794617
aF0.2017180472612381
aa(lp110
F-0.8913663029670715
aF0.25195255875587463
aa(lp111
F-0.956107497215271
aF0.3032829463481903
aa(lp112
F-1.040228247642517
aF0.3726315498352051
aa(lp113
F-1.1101239919662476
aF0.4340117871761322
aa(lp114
F-1.1947945356369019
aF0.5133458971977234
aa(lp115
F-1.2738101482391357
aF0.5927761793136597
aa(lp116
F-1.3334755897521973
aF0.6546080112457275
aa(lp117
F-1.3800814151763916
aF0.7050316333770752
aa(lp118
F-1.425163745880127
aF0.7598627209663391
aa(lp119
F-1.4744068384170532
aF0.8282569050788879
aa(lp120
F-1.5114128589630127
aF0.8871909976005554
aa(lp121
F-1.5547196865081787
aF0.9614236354827881
aa(lp122
F-1.5975353717803955
aF1.0404866933822632
aa(lp123
F-1.6421700716018677
aF1.13246488571167
aa(lp124
F-1.677449107170105
aF1.2141958475112915
aa(lp125
F-1.7156500816345215
aF1.3151254653930664
aa(lp126
F-1.7450745105743408
aF1.4011476039886475
aa(lp127
F-1.7774238586425781
aF1.5063179731369019
aa(lp128
F-1.800960898399353
aF1.5952895879745483
aa(lp129
F-1.825447916984558
aF1.7056370973587036
aa(lp130
F-1.8427118062973022
aF1.8021605014801025
aa(lp131
F-1.857459545135498
aF1.8937578201293945
aa(lp132
F-1.8755290508270264
aF1.993072748184204
aa(lp133
F-1.8911645412445068
aF2.0694329738616943
aa(lp134
F-1.9168754816055298
aF2.1814749240875244
aa(lp135
F-1.9438763856887817
aF2.285999059677124
aa(lp136
F-1.9675827026367188
aF2.370455503463745
aa(lp137
F-1.9883744716644287
aF2.4429235458374023
aa(lp138
F-2.006251811981201
aF2.5200676918029785
aa(lp139
F-2.0179481506347656
aF2.5893666744232178
aa(lp140
F-2.026557683944702
aF2.6703548431396484
aa(lp141
F-2.0303475856781006
aF2.7489171028137207
aa(lp142
F-2.02943754196167
aF2.833799123764038
aa(lp143
F-2.02478289604187
aF2.902796745300293
aa(lp144
F-2.0136256217956543
aF2.9909141063690186
aa(lp145
F-1.9963937997817993
aF3.079634428024292
aa(lp146
F-1.9765985012054443
aF3.162135124206543
aa(lp147
F-1.9558629989624023
aF3.235413074493408
aa(lp148
F-1.931514859199524
aF3.3075411319732666
aa(lp149
F-1.8979700803756714
aF3.391521453857422
aa(lp150
F-1.8672624826431274
aF3.457869052886963
aa(lp151
F-1.8284411430358887
aF3.53425669670105
aa(lp152
F-1.7984384298324585
aF3.5930542945861816
aa(lp153
F-1.7699306011199951
aF3.648296356201172
aa(lp154
F-1.7462221384048462
aF3.691713333129883
aasI1
(lp155
(lp156
F-0.02271038480103016
aF2.968050479888916
aa(lp157
F-0.041524846106767654
aF2.9380624294281006
aa(lp158
F-0.05219700559973717
aF2.9194750785827637
aa(lp159
F-0.05590606480836868
aF2.912332057952881
aa(lp160
F-0.056715935468673706
aF2.9103758335113525
aa(lp161
F-0.057503778487443924
aF2.90800142288208
aa(lp162
F-0.05968598648905754
aF2.898825168609619
aa(lp163
F-0.06331177055835724
aF2.8781113624572754
aa(lp164
F-0.06624200940132141
aF2.8488595485687256
aa(lp165
F-0.06876638531684875
aF2.7983806133270264
aa(lp166
F-0.06859412044286728
aF2.748809576034546
aa(lp167
F-0.06404642760753632
aF2.67258358001709
aa(lp168
F-0.055868975818157196
aF2.60170578956604
aa(lp169
F-0.039675433188676834
aF2.501636505126953
aa(lp170
F-0.02452182210981846
aF2.4150912761688232
aa(lp171
F-0.0057627665810287
aF2.312871217727661
aa(lp172
F0.012945612892508507
aF2.221503734588623
aa(lp173
F0.02922770194709301
aF2.1483869552612305
aa(lp174
F0.04947444424033165
aF2.0622830390930176
aa(lp175
F0.06748199462890625
aF1.9895766973495483
aa(lp176
F0.08955714851617813
aF1.904746651649475
aa(lp177
F0.11462178081274033
aF1.8162859678268433
aa(lp178
F0.1354730725288391
aF1.7539689540863037
aa(lp179
F0.15848408639431
aF1.6894031763076782
aa(lp180
F0.17943091690540314
aF1.6328978538513184
aa(lp181
F0.20479480922222137
aF1.5671119689941406
aa(lp182
F0.2337227314710617
aF1.497796893119812
aa(lp183
F0.2538023889064789
aF1.4539756774902344
aa(lp184
F0.27805519104003906
aF1.4008963108062744
aa(lp185
F0.30160683393478394
aF1.349192500114441
aa(lp186
F0.3216826319694519
aF1.3049949407577515
aa(lp187
F0.3426605463027954
aF1.260039210319519
aa(lp188
F0.36787641048431396
aF1.2128069400787354
aa(lp189
F0.3841429650783539
aF1.1855143308639526
aa(lp190
F0.4039953649044037
aF1.1546629667282104
aa(lp191
F0.4215221703052521
aF1.1293625831604004
aa(lp192
F0.44308704137802124
aF1.1006325483322144
aa(lp193
F0.45646998286247253
aF1.0845822095870972
aa(lp194
F0.463230162858963
aF1.0773658752441406
aa(lp195
F0.4618711769580841
aF1.0786046981811523
aa(lp196
F0.4506872296333313
aF1.0882925987243652
aa(lp197
F0.44105255603790283
aF1.096213936805725
aa(lp198
F0.4318634867668152
aF1.1038349866867065
aa(lp199
F0.4210401177406311
aF1.1130365133285522
aa(lp200
F0.4120216369628906
aF1.1208974123001099
aa(lp201
F0.4014146625995636
aF1.1303752660751343
aa(lp202
F0.3913765251636505
aF1.1393736600875854
aa(lp203
F0.3732816278934479
aF1.1551450490951538
aa(lp204
F0.35255011916160583
aF1.1728719472885132
aa(lp205
F0.33171728253364563
aF1.190324306488037
aa(lp206
F0.3053358495235443
aF1.2119150161743164
aa(lp207
F0.28107360005378723
aF1.231595516204834
aa(lp208
F0.2598603665828705
aF1.2509018182754517
aa(lp209
F0.23894834518432617
aF1.2737573385238647
aa(lp210
F0.22088687121868134
aF1.2977317571640015
aa(lp211
F0.20300355553627014
aF1.3272417783737183
aa(lp212
F0.1918296217918396
aF1.34989333152771
aa(lp213
F0.18370337784290314
aF1.3688664436340332
aa(lp214
F0.18219059705734253
aF1.3729944229125977
aa(lp215
F0.18719424307346344
aF1.3604670763015747
aa(lp216
F0.19369542598724365
aF1.34512460231781
aa(lp217
F0.19600021839141846
aF1.3397034406661987
aa(lp218
F0.2033216655254364
aF1.3198416233062744
aa(lp219
F0.2113966941833496
aF1.299730896949768
aa(lp220
F0.21862748265266418
aF1.2830159664154053
aa(lp221
F0.22804081439971924
aF1.2628135681152344
aa(lp222
F0.23535586893558502
aF1.2475249767303467
aa(lp223
F0.24178481101989746
aF1.2344212532043457
aa(lp224
F0.24932408332824707
aF1.219738245010376
aa(lp225
F0.25937363505363464
aF1.2011759281158447
aa(lp226
F0.2680389881134033
aF1.1860122680664062
aa(lp227
F0.2697497606277466
aF1.183296799659729
aa(lp228
F0.26791971921920776
aF1.1875518560409546
aa(lp229
F0.2659272253513336
aF1.1942440271377563
aa(lp230
F0.2648670971393585
aF1.1998177766799927
aa(lp231
F0.26427850127220154
aF1.2065129280090332
aa(lp232
F0.26426348090171814
aF1.2091652154922485
aa(lp233
F0.2644525468349457
aF1.2026327848434448
aa(lp234
F0.26517316699028015
aF1.1936970949172974
aa(lp235
F0.26687413454055786
aF1.1833586692810059
aa(lp236
F0.2689811885356903
aF1.1749236583709717
aa(lp237
F0.2701413333415985
aF1.171006679534912
aa(lp238
F0.27454009652137756
aF1.1565014123916626
aa(lp239
F0.2813492715358734
aF1.1354135274887085
aa(lp240
F0.29086440801620483
aF1.109358549118042
aa(lp241
F0.30128419399261475
aF1.0841271877288818
aa(lp242
F0.3049026131629944
aF1.0759694576263428
aa(lp243
F0.3047885596752167
aF1.0763111114501953
aa(lp244
F0.3047318160533905
aF1.0765525102615356
aa(lp245
F0.3047063946723938
aF1.0767866373062134
aa(lp246
F0.30470114946365356
aF1.0772420167922974
aa(lp247
F0.3041616380214691
aF1.067468285560608
aa(lp248
F0.3043636977672577
aF1.056803822517395
aa(lp249
F0.30560165643692017
aF1.0464394092559814
aa(lp250
F0.30756738781929016
aF1.0371594429016113
aa(lp251
F0.310699999332428
aF1.0270122289657593
aa(lp252
F0.31567734479904175
aF1.0141667127609253
aa(lp253
F0.3181722164154053
aF1.007515549659729
aa(lp254
F0.3186941146850586
aF1.005356788635254
aa(lp255
F0.31898483633995056
aF1.0034244060516357
aa(lp256
F0.3191429674625397
aF1.0004431009292603
aa(lp257
F0.319200724363327
aF0.9893430471420288
aa(lp258
F0.3196549415588379
aF0.9785224199295044
aa(lp259
F0.3207450807094574
aF0.9699558615684509
aa(lp260
F0.3224855661392212
aF0.9614220857620239
aa(lp261
F0.3256116509437561
aF0.9508545994758606
aa(lp262
F0.32896915078163147
aF0.9418417811393738
aa(lp263
F0.33020636439323425
aF0.938811719417572
aa(lp264
F0.3311680853366852
aF0.9366072416305542
aa(lp265
F0.33243200182914734
aF0.9338802695274353
aa(lp266
F2.714870328546226e-09
aF3.0
aa(lp267
F-0.0014908264856785536
aF2.9979941844940186
aa(lp268
F-0.012906644493341446
aF2.982184886932373
aa(lp269
F-0.028008949011564255
aF2.960937023162842
aa(lp270
F-0.04578743502497673
aF2.935467481613159
aa(lp271
F-0.06027265638113022
aF2.914358377456665
aa(lp272
F-0.0741269662976265
aF2.893404006958008
aa(lp273
F-0.0936552882194519
aF2.860408067703247
aa(lp274
F-0.11362356692552567
aF2.8181660175323486
aa(lp275
F-0.1273692548274994
aF2.7797014713287354
aa(lp276
F-0.139267235994339
aF2.7317299842834473
aa(lp277
F-0.14516571164131165
aF2.695572853088379
aa(lp278
F-0.15166953206062317
aF2.641786575317383
aa(lp279
F-0.15540999174118042
aF2.5891973972320557
aa(lp280
F-0.15579570829868317
aF2.5242984294891357
aa(lp281
F-0.1524333506822586
aF2.4681832790374756
aa(lp282
F-0.14616131782531738
aF2.412402391433716
aa(lp283
F-0.13658735156059265
aF2.3463475704193115
aa(lp284
F-0.12751546502113342
aF2.2948460578918457
aa(lp285
F-0.11162597686052322
aF2.219487428665161
aa(lp286
F-0.09397637844085693
aF2.149272918701172
aa(lp287
F-0.07577087730169296
aF2.0861446857452393
aa(lp288
F-0.055013615638017654
aF2.0173168182373047
aa(lp289
F-0.03093581460416317
aF1.939024806022644
aa(lp290
F-0.009183627553284168
aF1.869634747505188
aa(lp291
F0.01644047722220421
aF1.7894319295883179
aa(lp292
F0.04097101837396622
aF1.7165013551712036
aa(lp293
F0.07404033094644547
aF1.6298718452453613
aa(lp294
F0.10731762647628784
aF1.551112174987793
aa(lp295
F0.1534750610589981
aF1.4480470418930054
aa(lp296
F0.20273707807064056
aF1.3442226648330688
aa(lp297
F0.24948106706142426
aF1.2497859001159668
aa(lp298
F0.2938232719898224
aF1.159017562866211
aa(lp299
F0.3374989628791809
aF1.0679293870925903
aa(lp300
F0.3885241448879242
aF0.9592922925949097
aa(lp301
F0.429078072309494
aF0.8711575865745544
aa(lp302
F0.4731654226779938
aF0.7761124968528748
aa(lp303
F0.508341372013092
aF0.7045266628265381
aa(lp304
F0.5441954731941223
aF0.6355207562446594
aa(lp305
F0.5687639713287354
aF0.5889214277267456
aasI2
(lp306
(lp307
F2.9920551776885986
aF0.016983797773718834
aa(lp308
F2.984105110168457
aF0.035450734198093414
aa(lp309
F2.9821457862854004
aF0.03988378867506981
aa(lp310
F2.9852802753448486
aF0.03317893669009209
aa(lp311
F2.992051362991333
aF0.019136939197778702
aa(lp312
F3.0066728591918945
aF-0.010511077009141445
aa(lp313
F3.020479202270508
aF-0.03739795833826065
aa(lp314
F3.031442165374756
aF-0.05795268341898918
aa(lp315
F3.037189483642578
aF-0.06787870824337006
aa(lp316
F3.0356922149658203
aF-0.06547971069812775
aa(lp317
F3.0291876792907715
aF-0.05524318665266037
aa(lp318
F3.0143415927886963
aF-0.03306024521589279
aa(lp319
F2.9960460662841797
aF-0.0065873474813997746
aa(lp320
F2.9625415802001953
aF0.03661515936255455
aa(lp321
F2.931299924850464
aF0.06964867562055588
aa(lp322
F2.890698194503784
aF0.10514520853757858
aa(lp323
F2.8520469665527344
aF0.13394314050674438
aa(lp324
F2.8130483627319336
aF0.16169361770153046
aa(lp325
F2.7530338764190674
aF0.2027745246887207
aa(lp326
F2.6948041915893555
aF0.23729895055294037
aa(lp327
F2.6239733695983887
aF0.27237844467163086
aa(lp328
F2.5452404022216797
aF0.3039891719818115
aa(lp329
F2.4775493144989014
aF0.3260965645313263
aa(lp330
F2.399904489517212
aF0.34595954418182373
aa(lp331
F2.330672025680542
aF0.35894936323165894
aa(lp332
F2.248817205429077
aF0.36872342228889465
aa(lp333
F2.165371894836426
aF0.37386465072631836
aa(lp334
F2.091181516647339
aF0.3768816292285919
aa(lp335
F1.9980326890945435
aF0.37764573097229004
aa(lp336
F1.907394289970398
aF0.37493202090263367
aa(lp337
F1.8300670385360718
aF0.36991605162620544
aa(lp338
F1.759053349494934
aF0.363465279340744
aa(lp339
F1.6835016012191772
aF0.35531607270240784
aa(lp340
F1.6339174509048462
aF0.34919214248657227
aa(lp341
F1.5889019966125488
aF0.3427521288394928
aa(lp342
F1.5614954233169556
aF0.3375432789325714
aa(lp343
F1.5302848815917969
aF0.32953202724456787
aa(lp344
F1.5117565393447876
aF0.3240315318107605
aa(lp345
F1.49274742603302
aF0.317064106464386
aa(lp346
F1.4767835140228271
aF0.3100743591785431
aa(lp347
F1.457754135131836
aF0.30025848746299744
aa(lp348
F1.4407119750976562
aF0.2903567850589752
aa(lp349
F1.4325611591339111
aF0.28615742921829224
aa(lp350
F1.4224811792373657
aF0.2818329930305481
aa(lp351
F1.4135777950286865
aF0.27874162793159485
aa(lp352
F1.4027926921844482
aF0.27584460377693176
aa(lp353
F1.3819444179534912
aF0.2713741362094879
aa(lp354
F1.3487364053726196
aF0.26401421427726746
aa(lp355
F1.3060592412948608
aF0.2540559768676758
aa(lp356
F1.2621078491210938
aF0.2424725443124771
aa(lp357
F1.2073770761489868
aF0.22597579658031464
aa(lp358
F1.163764476776123
aF0.21133604645729065
aa(lp359
F1.1367607116699219
aF0.20191426575183868
aa(lp360
F1.1227169036865234
aF0.19699156284332275
aa(lp361
F1.1170732975006104
aF0.19471049308776855
aa(lp362
F1.110869288444519
aF0.19174431264400482
aa(lp363
F1.0989946126937866
aF0.18535250425338745
aa(lp364
F1.069804310798645
aF0.16972967982292175
aa(lp365
F1.0353602170944214
aF0.1509643942117691
aa(lp366
F0.9886777400970459
aF0.12496144324541092
aa(lp367
F0.9437652230262756
aF0.10008177906274796
aa(lp368
F0.9032884836196899
aF0.0777134820818901
aa(lp369
F0.8548171520233154
aF0.05123233422636986
aa(lp370
F0.8086418509483337
aF0.026442496106028557
aa(lp371
F0.7696523666381836
aF0.005830672569572926
aa(lp372
F0.7218811511993408
aF-0.019019676372408867
aa(lp373
F0.6782340407371521
aF-0.041462287306785583
aa(lp374
F0.6544850468635559
aF-0.053542349487543106
aa(lp375
F0.6351056694984436
aF-0.06357327103614807
aa(lp376
F0.630633533000946
aF-0.06595738977193832
aa(lp377
F0.6312891244888306
aF-0.0657082125544548
aa(lp378
F0.6222329139709473
aF-0.06824894994497299
aa(lp379
F0.6168389916419983
aF-0.0695190280675888
aa(lp380
F0.6113463044166565
aF-0.07030294090509415
aa(lp381
F0.6068592667579651
aF-0.07057224214076996
aa(lp382
F0.6014524698257446
aF-0.07045935839414597
aa(lp383
F0.5873863697052002
aF-0.06953214108943939
aa(lp384
F0.5783576965332031
aF-0.06952215731143951
aa(lp385
F0.569595217704773
aF-0.07026221603155136
aa(lp386
F0.5589653253555298
aF-0.0721922516822815
aa(lp387
F0.5501853227615356
aF-0.07468408346176147
aa(lp388
F0.5363610982894897
aF-0.07979665696620941
aa(lp389
F0.5237915515899658
aF-0.08438180387020111
aa(lp390
F0.5198559761047363
aF-0.08550147712230682
aa(lp391
F0.515173077583313
aF-0.08630607277154922
aa(lp392
F0.5101190805435181
aF-0.08660932630300522
aa(lp393
F0.4979204833507538
aF-0.08661839365959167
aa(lp394
F0.486057311296463
aF-0.08704540878534317
aa(lp395
F0.4776841402053833
aF-0.08811469376087189
aa(lp396
F0.46728450059890747
aF-0.09030776470899582
aa(lp397
F0.45683977007865906
aF-0.09356221556663513
aa(lp398
F0.4446397125720978
aF-0.09825915098190308
aa(lp399
F0.43876883387565613
aF-0.1003500446677208
aa(lp400
F0.4351993501186371
aF-0.10120467096567154
aa(lp401
F0.4320169687271118
aF-0.10164824873209
aa(lp402
F0.4284497797489166
aF-0.10178197920322418
aa(lp403
F0.4186724126338959
aF-0.10143325477838516
aa(lp404
F0.40737485885620117
aF-0.10158366709947586
aa(lp405
F0.3968743085861206
aF-0.102739118039608
aa(lp406
F0.38951897621154785
aF-0.10414587706327438
aa(lp407
F0.3786586821079254
aF-0.1071905866265297
aa(lp408
F0.3701842725276947
aF-0.11032648384571075
aa(lp409
F0.36605364084243774
aF-0.11215154081583023
aa(lp410
F0.3628736138343811
aF-0.1137770265340805
aa(lp411
F0.35964664816856384
aF-0.11564376205205917
aa(lp412
F0.3559122681617737
aF-0.11810505390167236
aa(lp413
F0.35167139768600464
aF-0.12126858532428741
aa(lp414
F0.33614811301231384
aF-0.13406215608119965
aa(lp415
F0.31446099281311035
aF-0.15385667979717255
aa(lp416
F0.280086487531662
aF-0.18871457874774933
aa(lp417
F0.24030156433582306
aF-0.23451942205429077
aa(lp418
F0.19992266595363617
aF-0.28676897287368774
aa(lp419
F0.15944048762321472
aF-0.34536734223365784
aa(lp420
F0.11509900540113449
aF-0.4171930253505707
aa(lp421
F0.05800410360097885
aF-0.5165259838104248
aa(lp422
F0.010656452737748623
aF-0.5988597273826599
aa(lp423
F-0.028870021924376488
aF-0.6714581847190857
aa(lp424
F-0.06009761616587639
aF-0.7365183234214783
aa(lp425
F-0.0870136246085167
aF-0.8016163110733032
aa(lp426
F-0.10379097610712051
aF-0.8494024276733398
aa(lp427
F-0.1157311424612999
aF-0.8858405947685242
aa(lp428
F-0.12683361768722534
aF-0.9148382544517517
aa(lp429
F-0.1405649334192276
aF-0.944416880607605
aa(lp430
F-0.15402889251708984
aF-0.9687285423278809
aa(lp431
F-0.17259559035301208
aF-0.9972972273826599
aa(lp432
F-0.1903606504201889
aF-1.0207171440124512
aa(lp433
F-0.21835508942604065
aF-1.0556280612945557
aa(lp434
F-0.24228361248970032
aF-1.0852879285812378
aa(lp435
F-0.2619858384132385
aF-1.1078026294708252
aa(lp436
F-0.2923526465892792
aF-1.1397948265075684
aa(lp437
F-0.322272926568985
aF-1.1685066223144531
aa(lp438
F-0.3551500141620636
aF-1.1981908082962036
aa(lp439
F-0.3950289785861969
aF-1.2310682535171509
aa(lp440
F-0.4429910480976105
aF-1.2654238939285278
aa(lp441
F-0.4874877631664276
aF-1.2929718494415283
aa(lp442
F-0.5411058068275452
aF-1.3212816715240479
aa(lp443
F-0.5909391641616821
aF-1.344215750694275
aa(lp444
F-0.6534136533737183
aF-1.3716249465942383
aa(lp445
F-0.7130512595176697
aF-1.3967721462249756
aa(lp446
F-0.7995414733886719
aF-1.4299137592315674
aa(lp447
F-0.8902052640914917
aF-1.458552360534668
aa(lp448
F-0.9746824502944946
aF-1.4811071157455444
aa(lp449
F-1.065364956855774
aF-1.5033549070358276
aa(lp450
F-1.1594338417053223
aF-1.5230103731155396
aa(lp451
F-1.272053599357605
aF-1.5419588088989258
aa(lp452
F-1.3636012077331543
aF-1.5537570714950562
aa(lp453
F-1.4693986177444458
aF-1.5646519660949707
aa(lp454
F-1.5639781951904297
aF-1.5749036073684692
aa(lp455
F-1.6709784269332886
aF-1.587631344795227
aa(lp456
F-1.7595523595809937
aF-1.599079966545105
aasI3
(lp457
(lp458
F-2.97605562210083
aF0.0015990228857845068
aa(lp459
F-2.9241151809692383
aF0.004915591794997454
aa(lp460
F-2.8890585899353027
aF0.007420421577990055
aa(lp461
F-2.8627703189849854
aF0.009449675679206848
aa(lp462
F-2.8516087532043457
aF0.010404751636087894
aa(lp463
F-2.851938486099243
aF0.010301241651177406
aa(lp464
F-2.8491158485412598
aF0.010588587261736393
aa(lp465
F-2.8303656578063965
aF0.012035300955176353
aa(lp466
F-2.805819511413574
aF0.014099630527198315
aa(lp467
F-2.7607743740081787
aF0.018422743305563927
aa(lp468
F-2.7153570652008057
aF0.023127740249037743
aa(lp469
F-2.645660400390625
aF0.03107287734746933
aa(lp470
F-2.579465627670288
aF0.039178572595119476
aa(lp471
F-2.485888719558716
aF0.051556047052145004
aa(lp472
F-2.3997533321380615
aF0.06353745609521866
aa(lp473
F-2.297386646270752
aF0.0777069702744484
aa(lp474
F-2.199192523956299
aF0.09152603894472122
aa(lp475
F-2.12465500831604
aF0.10276100784540176
aa(lp476
F-2.0377509593963623
aF0.11719276756048203
aa(lp477
F-1.964354157447815
aF0.13055011630058289
aa(lp478
F-1.8787122964859009
aF0.14750109612941742
aa(lp479
F-1.784454584121704
aF0.16738174855709076
aa(lp480
F-1.70575749874115
aF0.1838494837284088
aa(lp481
F-1.6170705556869507
aF0.20215730369091034
aa(lp482
F-1.5391157865524292
aF0.21803078055381775
aa(lp483
F-1.4478421211242676
aF0.23635753989219666
aa(lp484
F-1.3585164546966553
aF0.254455029964447
aa(lp485
F-1.2943512201309204
aF0.2678530216217041
aa(lp486
F-1.21562922000885
aF0.28482285141944885
aa(lp487
F-1.1391130685806274
aF0.3018718361854553
aa(lp488
F-1.0738195180892944
aF0.3168554902076721
aa(lp489
F-1.012039065361023
aF0.3314518928527832
aa(lp490
F-0.9464622139930725
aF0.34764090180397034
aa(lp491
F-0.9051815271377563
aF0.35811930894851685
aa(lp492
F-0.868639349937439
aF0.367864727973938
aa(lp493
F-0.8468206524848938
aF0.37377381324768066
aa(lp494
F-0.827983021736145
aF0.3799024820327759
aa(lp495
F-0.7942816019058228
aF0.3918086588382721
aa(lp496
F-0.7445194721221924
aF0.40980157256126404
aa(lp497
F-0.6919887065887451
aF0.42926743626594543
aa(lp498
F-0.615974485874176
aF0.45794057846069336
aa(lp499
F-0.5454427003860474
aF0.484280526638031
aa(lp500
F-0.49580612778663635
aF0.5033132433891296
aa(lp501
F-0.4483606219291687
aF0.5219067335128784
aa(lp502
F-0.4188966155052185
aF0.5337554216384888
aa(lp503
F-0.3969634771347046
aF0.5428160429000854
aa(lp504
F-0.3885361850261688
aF0.546377420425415
aa(lp505
F-0.3897170126438141
aF0.5458388328552246
aa(lp506
F-0.39259791374206543
aF0.544441819190979
aa(lp507
F-0.39534133672714233
aF0.5429812669754028
aa(lp508
F-0.39865541458129883
aF0.5410290360450745
aa(lp509
F-0.40293872356414795
aF0.5383111834526062
aa(lp510
F-0.41293299198150635
aF0.5316714644432068
aa(lp511
F-0.42270973324775696
aF0.5248075127601624
aa(lp512
F-0.4320492744445801
aF0.5178812146186829
aa(lp513
F-0.44249945878982544
aF0.5096749067306519
aa(lp514
F-0.44587641954421997
aF0.506917417049408
aa(lp515
F-0.4392659366130829
aF0.5124524831771851
aa(lp516
F-0.42548835277557373
aF0.524173378944397
aa(lp517
F-0.4014241695404053
aF0.5451083183288574
aa(lp518
F-0.3702264726161957
aF0.5712786912918091
aa(lp519
F-0.34567755460739136
aF0.5905020236968994
aa(lp520
F-0.32783642411231995
aF0.6038029789924622
aa(lp521
F-0.3237476348876953
aF0.6068750619888306
aa(lp522
F-0.32437387108802795
aF0.6064013242721558
aa(lp523
F-0.3251405358314514
aF0.6058221459388733
aa(lp524
F-0.3246610462665558
aF0.6062119007110596
aa(lp525
F-0.32421115040779114
aF0.6065496206283569
aa(lp526
F-0.32370051741600037
aF0.6069327592849731
aa(lp527
F-0.32299432158470154
aF0.6074615716934204
aa(lp528
F-0.32240861654281616
aF0.6078993082046509
aa(lp529
F-0.3215513527393341
aF0.6085391044616699
aa(lp530
F-0.3207986056804657
aF0.6091005206108093
aa(lp531
F-0.319875568151474
aF0.6097882390022278
aa(lp532
F-0.3191385567188263
aF0.6103368997573853
aa(lp533
F-0.31824737787246704
aF0.6109997630119324
aa(lp534
F-0.31726956367492676
aF0.6117265224456787
aa(lp535
F-0.31641966104507446
aF0.6123576760292053
aa(lp536
F-0.31558728218078613
aF0.6129754185676575
aa(lp537
F-0.31460416316986084
aF0.6137046217918396
aa(lp538
F-0.31377139687538147
aF0.6143218278884888
aa(lp539
F-0.3127695620059967
aF0.6150639653205872
aa(lp540
F-0.31176164746284485
aF0.6158100366592407
aa(lp541
F-0.3109205961227417
aF0.6164309978485107
aa(lp542
F-0.30986055731773376
aF0.6172007918357849
aa(lp543
F-0.3088241219520569
aF0.6179516315460205
aa(lp544
F-0.30798593163490295
aF0.6185705065727234
aa(lp545
F-0.3069343566894531
aF0.6193463802337646
aa(lp546
F-0.3060548007488251
aF0.6199949383735657
aa(lp547
F-0.30500656366348267
aF0.6207677125930786
aa(lp548
F-0.3039374351501465
aF0.6215553879737854
aa(lp549
F-0.30300185084342957
aF0.6222443580627441
aa(lp550
F-0.30190715193748474
aF0.6230502128601074
aa(lp551
F-0.3008413016796112
aF0.6238343715667725
aa(lp552
F-0.2998926341533661
aF0.6245319843292236
aa(lp553
F-0.2988166809082031
aF0.6253228783607483
aa(lp554
F-0.29786521196365356
aF0.6260219812393188
aa(lp555
F-0.2967853844165802
aF0.6268150210380554
aa(lp556
F-0.29571518301963806
aF0.6276006102561951
aa(lp557
F-0.29493939876556396
aF0.6281698942184448
aa(lp558
F-0.29380011558532715
aF0.629005491733551
aa(lp559
F-0.2886859178543091
aF0.6327786445617676
aa(lp560
F-0.27204692363739014
aF0.6452574729919434
aa(lp561
F-0.2510046064853668
aF0.6613278985023499
aa(lp562
F-0.22183731198310852
aF0.6841520071029663
aa(lp563
F-0.17635288834571838
aF0.720108151435852
aa(lp564
F-0.13870441913604736
aF0.7505457997322083
aa(lp565
F-0.10388300567865372
aF0.7794153094291687
aa(lp566
F-0.0812513530254364
aF0.7983635067939758
aa(lp567
F-0.06337396800518036
aF0.813649594783783
aa(lp568
F-3.0
aF2.3294168816079264e-09
aa(lp569
F-2.997983932495117
aF3.7344341308198636e-06
aa(lp570
F-2.98270583152771
aF7.303727034013718e-05
aa(lp571
F-2.956634998321533
aF0.0003959900059271604
aa(lp572
F-2.9147560596466064
aF0.0013666797894984484
aa(lp573
F-2.8675999641418457
aF0.0027715847827494144
aa(lp574
F-2.8114609718322754
aF0.00489271292462945
aa(lp575
F-2.7442562580108643
aF0.00794423557817936
aa(lp576
F-2.659472703933716
aF0.012669213116168976
aa(lp577
F-2.5845816135406494
aF0.018072448670864105
aa(lp578
F-2.493884325027466
aF0.026223039254546165
aa(lp579
F-2.4179739952087402
aF0.03420048952102661
aa(lp580
F-2.331118106842041
aF0.04424483701586723
aa(lp581
F-2.2585577964782715
aF0.05338555574417114
aa(lp582
F-2.169584274291992
aF0.06552482396364212
aa(lp583
F-2.092540740966797
aF0.0768677368760109
aa(lp584
F-2.022416114807129
aF0.08781314641237259
aa(lp585
F-1.9591244459152222
aF0.09828272461891174
aa(lp586
F-1.9181755781173706
aF0.10533560067415237
aa(lp587
F-1.8684589862823486
aF0.1145520880818367
aa(lp588
F-1.827962875366211
aF0.12357454001903534
aa(lp589
F-1.7883182764053345
aF0.13398593664169312
aa(lp590
F-1.7463083267211914
aF0.1459878385066986
aa(lp591
F-1.6988013982772827
aF0.1607857644557953
aa(lp592
F-1.656950831413269
aF0.1749221831560135
aa(lp593
F-1.608901858329773
aF0.19246257841587067
aa(lp594
F-1.5618799924850464
aF0.21085487306118011
aa(lp595
F-1.5023647546768188
aF0.235214501619339
aa(lp596
F-1.4437892436981201
aF0.259125679731369
aa(lp597
F-1.3675954341888428
aF0.28846845030784607
aa(lp598
F-1.289415717124939
aF0.3165903687477112
aa(lp599
F-1.2241744995117188
aF0.33902034163475037
aa(lp600
F-1.1645952463150024
aF0.3592616617679596
aa(lp601
F-1.1047757863998413
aF0.37900426983833313
aa(lp602
F-1.033504605293274
aF0.4018101692199707
aa(lp603
F-0.9757228493690491
aF0.4197215437889099
aa(lp604
F-0.9116352796554565
aF0.4394795596599579
aa(lp605
F-0.8649613857269287
aF0.45456939935684204
aa(lp606
F-0.82470703125
aF0.4683839976787567
aa(lp607
F-0.8016819357872009
aF0.47675710916519165
aas.