(lp0
(lp1
F1.1687707901000977
aF0.5189578533172607
aa(lp2
F0.8671380281448364
aF0.5957542061805725
aa(lp3
F1.0316364765167236
aF0.7196245193481445
aa(lp4
F0.9062543511390686
aF0.7795798778533936
aa(lp5
F0.8895010352134705
aF0.8921757340431213
aa(lp6
F0.6354970932006836
aF0.9112346172332764
aa(lp7
F1.0564879179000854
aF0.9523425102233887
aa(lp8
F0.6892625093460083
aF1.002671241760254
aa(lp9
F0.7298011779785156
aF1.0117193460464478
aa(lp10
F0.9285469651222229
aF1.0505952835083008
aa(lp11
F0.9340908527374268
aF1.0368826389312744
aa(lp12
F0.6493924260139465
aF1.0085713863372803
aa(lp13
F0.6410948038101196
aF1.0126280784606934
aa(lp14
F0.9140804409980774
aF0.968461275100708
aa(lp15
F0.8560981154441833
aF0.9765923023223877
aa(lp16
F1.1126184463500977
aF0.9540889859199524
aa(lp17
F0.91277676820755
aF0.9394185543060303
aa(lp18
F0.9155240058898926
aF0.9187716841697693
aa(lp19
F0.4602004289627075
aF0.9289194345474243
aa(lp20
F0.938545286655426
aF0.9327476024627686
aa(lp21
F0.8043778538703918
aF0.9289806485176086
aa(lp22
F0.7297471761703491
aF0.9395139217376709
aa(lp23
F0.7998054027557373
aF0.9425111413002014
aa(lp24
F0.5870221853256226
aF0.9537055492401123
aa(lp25
F0.8166859149932861
aF0.9566488265991211
aa(lp26
F0.8074941635131836
aF0.985413670539856
aa(lp27
F0.8070257902145386
aF0.9864779710769653
aa(lp28
F0.9745781421661377
aF0.9875480532646179
aa(lp29
F0.8891533017158508
aF0.9782631397247314
aa(lp30
F0.796052098274231
aF0.9825449585914612
aa(lp31
F1.0053447484970093
aF0.9781368970870972
aa(lp32
F0.5995298624038696
aF0.945763349533081
aa(lp33
F0.5593332648277283
aF0.9303258061408997
aa(lp34
F0.8752891421318054
aF0.9146161675453186
aa(lp35
F0.6390272974967957
aF0.903369128704071
aa(lp36
F0.7481470108032227
aF0.8943946957588196
aa(lp37
F0.8143465518951416
aF0.8972302079200745
aa(lp38
F0.6130726933479309
aF0.8923780918121338
aa(lp39
F0.45926764607429504
aF0.8921895623207092
aa(lp40
F0.5642779469490051
aF0.9211277961730957
aa(lp41
F0.9879189133644104
aF0.9295675158500671
aa(lp42
F0.757807731628418
aF0.9382517337799072
aa(lp43
F0.47512927651405334
aF0.9573081731796265
aa(lp44
F0.45829981565475464
aF0.9782546758651733
aa(lp45
F0.6578799486160278
aF0.9753113985061646
aa(lp46
F0.963782548904419
aF0.9557114839553833
aa(lp47
F0.5981031060218811
aF0.9509080052375793
aa(lp48
F0.443821519613266
aF0.9402500987052917
aa(lp49
F0.7431564331054688
aF0.9162728190422058
aa(lp50
F0.875970721244812
aF0.9055756330490112
aa(lp51
F0.9888114333152771
aF0.8972307443618774
aa(lp52
F1.07351815700531
aF0.886664628982544
aa(lp53
F0.5258030295372009
aF0.8942809700965881
aa(lp54
F0.5826056003570557
aF0.8915532827377319
aa(lp55
F0.6502012610435486
aF0.8977495431900024
aa(lp56
F0.8218660950660706
aF0.9139472842216492
aa(lp57
F0.523768961429596
aF0.9315070509910583
aa(lp58
F0.9462056159973145
aF0.9357993602752686
aa(lp59
F0.42520132660865784
aF0.935032308101654
aa(lp60
F0.6188260912895203
aF0.9438705444335938
aa(lp61
F0.32488444447517395
aF0.9477662444114685
aa(lp62
F0.6093588471412659
aF0.944542646408081
aa(lp63
F0.47967255115509033
aF0.9296272993087769
aa(lp64
F0.39596793055534363
aF0.9116740226745605
aa(lp65
F0.41536304354667664
aF0.904478907585144
aa(lp66
F0.5169612765312195
aF0.8894075155258179
aa(lp67
F0.42719322443008423
aF0.8711475133895874
aa(lp68
F0.5562452673912048
aF0.865668773651123
aa(lp69
F0.6032730937004089
aF0.8608232140541077
aa(lp70
F0.4018687903881073
aF0.8599628210067749
aa(lp71
F0.3672909140586853
aF0.8486441373825073
aa(lp72
F0.6975437998771667
aF0.8503060936927795
aa(lp73
F0.5153123736381531
aF0.8534737229347229
aa(lp74
F0.49644798040390015
aF0.8674012422561646
aa(lp75
F0.45008715987205505
aF0.8823392391204834
aa(lp76
F0.5635164380073547
aF0.8835625052452087
aa(lp77
F0.44777533411979675
aF0.8933593034744263
aa(lp78
F0.5394405722618103
aF0.9073464870452881
aa(lp79
F0.4209679663181305
aF0.9125100374221802
aa(lp80
F0.6112343668937683
aF0.9257095456123352
aa(lp81
F0.6006410717964172
aF0.9196818470954895
aa(lp82
F0.6131895184516907
aF0.9126530885696411
aa(lp83
F0.4278285801410675
aF0.9061561822891235
aa(lp84
F0.6100820899009705
aF0.9032284021377563
aa(lp85
F0.4900974929332733
aF0.8925290107727051
aa(lp86
F0.7044732570648193
aF0.8839697241783142
aa(lp87
F0.6067532896995544
aF0.879031777381897
aa(lp88
F0.49639371037483215
aF0.8815068006515503
aa(lp89
F0.4180525839328766
aF0.8703954219818115
aa(lp90
F0.252950519323349
aF0.8780862092971802
aa(lp91
F0.354976087808609
aF0.8775655031204224
aa(lp92
F0.5652281045913696
aF0.878030002117157
aa(lp93
F0.5383902192115784
aF0.8868545889854431
aa(lp94
F0.2902916967868805
aF0.8926264643669128
aa(lp95
F0.3370353877544403
aF0.886957585811615
aa(lp96
F0.5755932927131653
aF0.8873231410980225
aa(lp97
F0.44587650895118713
aF0.8853707313537598
aa(lp98
F0.34540098905563354
aF0.886563241481781
aa(lp99
F0.7075644731521606
aF0.8969970345497131
aa(lp100
F0.3339364528656006
aF0.8978937864303589
aa(lp101
F0.6017187833786011
aF0.9094623327255249
aa(lp102
F0.46822622418403625
aF0.9214897155761719
aa(lp103
F0.4471372067928314
aF0.9163362383842468
aa(lp104
F0.2659054696559906
aF0.9074828028678894
aa(lp105
F0.36777254939079285
aF0.8978379964828491
aa(lp106
F0.42815500497817993
aF0.8922434449195862
aa(lp107
F0.23601259291172028
aF0.8910696506500244
aa(lp108
F0.6611500978469849
aF0.8806477785110474
aa(lp109
F0.5138981938362122
aF0.8752828240394592
aa(lp110
F0.4242883622646332
aF0.8730403780937195
aa(lp111
F0.32013654708862305
aF0.8778383135795593
aa(lp112
F0.555915892124176
aF0.8808119297027588
aa(lp113
F0.6298349499702454
aF0.8828635811805725
aa(lp114
F0.37153878808021545
aF0.9038881063461304
aa(lp115
F0.6111531853675842
aF0.9072251319885254
aa(lp116
F0.2710056006908417
aF0.9163200259208679
aa(lp117
F0.6496630907058716
aF0.9121218323707581
aa(lp118
F0.5204066038131714
aF0.9109410643577576
aa(lp119
F0.4325706362724304
aF0.9087888598442078
aa(lp120
F0.5638538599014282
aF0.9034518599510193
aa(lp121
F0.38498541712760925
aF0.9017655849456787
aa(lp122
F0.5670398473739624
aF0.8949487209320068
aa(lp123
F0.5895262360572815
aF0.8840252161026001
aa(lp124
F0.8255917429924011
aF0.8943077325820923
aa(lp125
F0.47051703929901123
aF0.908242404460907
aa(lp126
F0.44506916403770447
aF0.9157518744468689
aa(lp127
F0.4443690776824951
aF0.9167958498001099
aa(lp128
F0.5165075063705444
aF0.9144640564918518
aa(lp129
F0.7584774494171143
aF0.9156591892242432
aa(lp130
F0.4430321753025055
aF0.9147899150848389
aa(lp131
F0.5197640061378479
aF0.9162468314170837
aa(lp132
F0.5726878643035889
aF0.9269272089004517
aa(lp133
F0.5688008069992065
aF0.9276199340820312
aa(lp134
F0.9327421188354492
aF0.9355444312095642
aa(lp135
F0.457180380821228
aF0.9354463815689087
aa(lp136
F0.566880464553833
aF0.9384477734565735
aa(lp137
F0.3906553089618683
aF0.9441022872924805
aa(lp138
F0.5345352292060852
aF0.9471017122268677
aa(lp139
F0.6485059857368469
aF0.9480053186416626
aa(lp140
F0.3716278076171875
aF0.9441438317298889
aa(lp141
F0.9287431240081787
aF0.9468631148338318
aa(lp142
F0.4672375023365021
aF0.9344471096992493
aa(lp143
F0.4606768786907196
aF0.9294527769088745
aa(lp144
F0.6115005612373352
aF0.9132431745529175
aa(lp145
F0.476031094789505
aF0.899451494216919
aa(lp146
F0.8927863240242004
aF0.8908483982086182
aa(lp147
F0.7737547755241394
aF0.8907075524330139
aa(lp148
F0.3259245455265045
aF0.8891240358352661
aa(lp149
F0.3569197952747345
aF0.885156512260437
aa(lp150
F0.6180423498153687
aF0.8854694366455078
aa(lp151
F0.4874046742916107
aF0.891446590423584
aa(lp152
F0.5334420800209045
aF0.905941367149353
aa(lp153
F0.560509204864502
aF0.9295308589935303
aa(lp154
F0.5874161720275879
aF0.9471662640571594
aa(lp155
F0.7034057378768921
aF0.9680086970329285
aa(lp156
F0.47789764404296875
aF0.9793986082077026
aa(lp157
F0.46854180097579956
aF0.995488166809082
aa(lp158
F0.42153632640838623
aF0.999765932559967
aa(lp159
F0.5438207387924194
aF0.9907236695289612
aa(lp160
F0.3098659813404083
aF0.9761863350868225
aa(lp161
F0.6176760196685791
aF0.9542649984359741
aa(lp162
F0.7962263822555542
aF0.9262785911560059
aa(lp163
F0.4701785147190094
aF0.9004786014556885
aa(lp164
F0.5857101678848267
aF0.8794949650764465
aa(lp165
F0.5292423963546753
aF0.8644983172416687
aa(lp166
F0.5116396546363831
aF0.8649029731750488
aa(lp167
F0.49791190028190613
aF0.8670583367347717
aa(lp168
F0.5198763012886047
aF0.8798210620880127
aa(lp169
F0.6820183992385864
aF0.8988499641418457
aa(lp170
F0.5352577567100525
aF0.9173871278762817
aa(lp171
F0.2822679877281189
aF0.9275874495506287
aa(lp172
F0.30260175466537476
aF0.9356204271316528
aa(lp173
F0.2820528447628021
aF0.9425198435783386
aa(lp174
F0.4077132046222687
aF0.9445452094078064
aa(lp175
F0.4093635380268097
aF0.9421288967132568
aa(lp176
F0.45342642068862915
aF0.9490158557891846
aa(lp177
F0.49093255400657654
aF0.9513288736343384
aa(lp178
F0.8005964756011963
aF0.958508312702179
aa(lp179
F0.6086407899856567
aF0.9542447924613953
aa(lp180
F0.3888920247554779
aF0.9619128704071045
aa(lp181
F0.3891545236110687
aF0.9716491103172302
aa(lp182
F0.5415098071098328
aF0.9716438055038452
aa(lp183
F0.7362145185470581
aF0.9651703834533691
aa(lp184
F0.5160367488861084
aF0.9624511003494263
aa(lp185
F0.6451773047447205
aF0.9567179083824158
aa(lp186
F0.7346875071525574
aF0.9475498795509338
aa(lp187
F0.4601917564868927
aF0.9361463189125061
aa(lp188
F0.4602682292461395
aF0.9317333102226257
aa(lp189
F0.35806214809417725
aF0.9197381734848022
aa(lp190
F0.5380932092666626
aF0.9162434339523315
aa(lp191
F0.49814119935035706
aF0.9144370555877686
aa(lp192
F0.4880811870098114
aF0.9235989451408386
aa(lp193
F0.4501628577709198
aF0.9321090579032898
aa(lp194
F0.47858870029449463
aF0.9412979483604431
aa(lp195
F0.5682921409606934
aF0.9386442303657532
aa(lp196
F0.6677049398422241
aF0.9425703287124634
aa(lp197
F0.40619075298309326
aF0.9452625513076782
aa(lp198
F0.5847492814064026
aF0.9599595665931702
aa(lp199
F0.8461606502532959
aF0.9767535328865051
aa(lp200
F0.6543981432914734
aF0.9974340200424194
aa(lp201
F0.41921281814575195
aF0.9928293228149414
aa(lp202
F0.5468789935112
aF0.9896528124809265
aa(lp203
F0.7998489737510681
aF0.9895918369293213
aa(lp204
F0.58563232421875
aF0.9771679639816284
aa(lp205
F0.7056513428688049
aF0.9527699947357178
aa(lp206
F0.6112189292907715
aF0.9316374659538269
aa(lp207
F0.4057667553424835
aF0.9102246761322021
aa(lp208
F0.43335485458374023
aF0.8923694491386414
aa(lp209
F0.6933440566062927
aF0.880600094795227
aa(lp210
F0.6389746069908142
aF0.8646565079689026
aa(lp211
F0.5115075707435608
aF0.8581140637397766
aa(lp212
F0.6665601134300232
aF0.8687945604324341
aa(lp213
F0.6026847958564758
aF0.8709578514099121
aa(lp214
F0.655239999294281
aF0.8796780109405518
aa(lp215
F0.47626644372940063
aF0.8885282278060913
aa(lp216
F0.6278508901596069
aF0.9043929576873779
aa(lp217
F0.5726557374000549
aF0.9173308610916138
aa(lp218
F0.4584742486476898
aF0.9238302111625671
aa(lp219
F0.3721868395805359
aF0.9328107237815857
aa(lp220
F0.6001911759376526
aF0.9407510757446289
aa(lp221
F0.5669035911560059
aF0.9490014910697937
aa(lp222
F0.3857763409614563
aF0.9495311379432678
aa(lp223
F0.40419870615005493
aF0.9438157081604004
aa(lp224
F0.7168384790420532
aF0.9490518569946289
aa(lp225
F0.6571957468986511
aF0.9538987278938293
aa(lp226
F0.4412299692630768
aF0.9622615575790405
aa(lp227
F0.4280809164047241
aF0.9643760919570923
aa(lp228
F0.5828108787536621
aF0.9661238193511963
aa(lp229
F0.4007048010826111
aF0.9565280675888062
aa(lp230
F0.5262799263000488
aF0.9493895769119263
aa(lp231
F0.2944577932357788
aF0.9355583190917969
aa(lp232
F0.79347163438797
aF0.9227867126464844
aa(lp233
F0.39726853370666504
aF0.9173644781112671
aa(lp234
F0.5376351475715637
aF0.9034653306007385
aa(lp235
F0.4199070930480957
aF0.8933761715888977
aa(lp236
F0.5773930549621582
aF0.8954893350601196
aa(lp237
F0.6711006760597229
aF0.8973286747932434
aa(lp238
F0.5197654366493225
aF0.9137633442878723
aa(lp239
F0.7467856407165527
aF0.9271784424781799
aa(lp240
F0.5436822772026062
aF0.9393591284751892
aa(lp241
F0.46931514143943787
aF0.95751953125
aa(lp242
F0.7974416017532349
aF0.9848166704177856
aa(lp243
F0.6117135286331177
aF1.002429485321045
aa(lp244
F0.6776313185691833
aF1.0137608051300049
aa(lp245
F0.39671462774276733
aF1.0262906551361084
aa(lp246
F0.4336879849433899
aF1.0344719886779785
aa(lp247
F0.5161341428756714
aF1.0308890342712402
aa(lp248
F0.8948643207550049
aF1.0214062929153442
aa(lp249
F0.5120799541473389
aF1.0147550106048584
aa(lp250
F0.4426429271697998
aF0.9941896200180054
aa(lp251
F0.6050874590873718
aF0.9738870859146118
aa(lp252
F0.33505696058273315
aF0.9669026136398315
aa(lp253
F0.7583377957344055
aF0.9536716938018799
aa(lp254
F0.6872363686561584
aF0.9473193883895874
aa(lp255
F0.7141847014427185
aF0.9483628273010254
aa(lp256
F0.29554393887519836
aF0.9439375400543213
aa(lp257
F0.5799474120140076
aF0.9295727014541626
aa(lp258
F0.6278743743896484
aF0.9253316521644592
aa(lp259
F0.4355497658252716
aF0.9257775545120239
aa(lp260
F0.5185160636901855
aF0.9267878532409668
aa(lp261
F0.7854782938957214
aF0.9448179602622986
aa(lp262
F0.6264703273773193
aF0.9700937271118164
aa(lp263
F0.87212735414505
aF0.9968568086624146
aa(lp264
F0.5089531540870667
aF1.0128250122070312
aa(lp265
F0.5848255157470703
aF1.0281486511230469
aa(lp266
F0.5573270320892334
aF1.0351200103759766
aa(lp267
F0.7079174518585205
aF1.026432991027832
aa(lp268
F0.6053808927536011
aF1.0184133052825928
aa(lp269
F0.5126124024391174
aF1.0066391229629517
aa(lp270
F0.4064443111419678
aF0.9900428056716919
aa(lp271
F0.8329108953475952
aF0.9827394485473633
aa(lp272
F0.5326403379440308
aF0.9637056589126587
aa(lp273
F0.597332775592804
aF0.9450823068618774
aa(lp274
F0.729315996170044
aF0.9394401907920837
aa(lp275
F0.6132507920265198
aF0.9354013800621033
aa(lp276
F0.8235374689102173
aF0.9454377293586731
aa(lp277
F0.5848035216331482
aF0.9463030099868774
aa(lp278
F0.37251511216163635
aF0.9514989852905273
aa(lp279
F0.6389623284339905
aF0.9627202153205872
aa(lp280
F0.5151082277297974
aF0.9820694923400879
aa(lp281
F0.7245287895202637
aF0.9958093762397766
aa(lp282
F0.3985295593738556
aF1.0131809711456299
aa(lp283
F0.7105998396873474
aF1.0211374759674072
aa(lp284
F0.7591894865036011
aF1.0195643901824951
aa(lp285
F0.4968954622745514
aF1.0089576244354248
aa(lp286
F0.3529823124408722
aF1.0008208751678467
aa(lp287
F0.7611697912216187
aF0.9815590977668762
aa(lp288
F0.39855319261550903
aF0.9735459089279175
aa(lp289
F0.5367164015769958
aF0.9595320224761963
aa(lp290
F0.6717705726623535
aF0.9467542767524719
aa(lp291
F0.38796746730804443
aF0.9365070462226868
aa(lp292
F0.5727340579032898
aF0.9318835139274597
aa(lp293
F0.6129076480865479
aF0.934669017791748
aa(lp294
F0.8856335282325745
aF0.9416483640670776
aa(lp295
F0.3961247503757477
aF0.9451786279678345
aa(lp296
F0.5495129227638245
aF0.94943767786026
aa(lp297
F0.5458986163139343
aF0.9582610130310059
aa(lp298
F0.5794674158096313
aF0.9685858488082886
aa(lp299
F0.5778622627258301
aF0.9740533828735352
aa(lp300
F0.548359215259552
aF0.9757945537567139
aa(lp301
F0.7960565686225891
aF0.9781327843666077
aa(lp302
F0.5496211647987366
aF0.9848856925964355
aa(lp303
F0.5669772624969482
aF0.991033673286438
aa(lp304
F0.31664812564849854
aF0.9971184134483337
aa(lp305
F0.7825879454612732
aF1.003785252571106
aa(lp306
F0.6612126231193542
aF1.012713074684143
aa(lp307
F0.5856360197067261
aF1.0059324502944946
aa(lp308
F0.6487262845039368
aF1.0051010847091675
aa(lp309
F0.7763605713844299
aF1.008332371711731
aa(lp310
F0.43761149048805237
aF1.0003750324249268
aa(lp311
F0.6455745697021484
aF0.992779552936554
aa(lp312
F0.7147017121315002
aF0.9936774969100952
aa(lp313
F0.5879631638526917
aF0.9813150763511658
aa(lp314
F0.6399701833724976
aF0.9672960638999939
aa(lp315
F0.653572142124176
aF0.9599438309669495
aa(lp316
F0.591623067855835
aF0.9432238936424255
aa(lp317
F0.5711570382118225
aF0.9349281787872314
aa(lp318
F0.4311319887638092
aF0.9351140856742859
aa(lp319
F0.8090204000473022
aF0.9412679672241211
aa(lp320
F0.4340607523918152
aF0.9357247352600098
aa(lp321
F0.36225783824920654
aF0.9439508318901062
aa(lp322
F0.6910444498062134
aF0.9534422159194946
aa(lp323
F0.752972424030304
aF0.9720488786697388
aa(lp324
F0.5727200508117676
aF0.9880350232124329
aa(lp325
F0.8052274584770203
aF1.0102603435516357
aa(lp326
F0.4204404652118683
aF1.0237481594085693
aa(lp327
F0.5267242789268494
aF1.0316356420516968
aa(lp328
F0.6270309090614319
aF1.0355812311172485
aa(lp329
F0.5473145842552185
aF1.0428491830825806
aa(lp330
F0.49478426575660706
aF1.0271048545837402
aa(lp331
F0.41622403264045715
aF1.0094112157821655
aa(lp332
F0.6978462338447571
aF0.9922682046890259
aa(lp333
F0.9762719869613647
aF0.9824924468994141
aa(lp334
F0.4641648232936859
aF0.9636094570159912
aa(lp335
F0.5832651853561401
aF0.9530129432678223
aa(lp336
F0.7164872288703918
aF0.9465379118919373
aa(lp337
F0.5526105761528015
aF0.9409604072570801
aa(lp338
F0.732236921787262
aF0.9425351023674011
aa(lp339
F1.0018024444580078
aF0.9545896053314209
aa(lp340
F0.7392027378082275
aF0.9707399010658264
aa(lp341
F0.5313908457756042
aF0.9867861270904541
aa(lp342
F0.45511889457702637
aF1.0029808282852173
aa(lp343
F0.6304640769958496
aF1.0203557014465332
aa(lp344
F0.4697960615158081
aF1.0223820209503174
aa(lp345
F0.8033439517021179
aF1.0332087278366089
aa(lp346
F0.7134057283401489
aF1.021589756011963
aa(lp347
F0.6639385223388672
aF1.0217976570129395
aa(lp348
F0.44695210456848145
aF1.016827940940857
aa(lp349
F0.6700050234794617
aF1.0089502334594727
aa(lp350
F0.5097810626029968
aF0.9938910007476807
aa(lp351
F0.6039413809776306
aF0.9824763536453247
aa(lp352
F0.74958735704422
aF0.9749557375907898
aa(lp353
F0.4903191328048706
aF0.9514392614364624
aa(lp354
F0.44005030393600464
aF0.9439628720283508
aa(lp355
F0.44629669189453125
aF0.9354034662246704
aa(lp356
F0.537317156791687
aF0.9295607209205627
aa(lp357
F0.48979634046554565
aF0.9246297478675842
aa(lp358
F0.5258788466453552
aF0.9332045912742615
aa(lp359
F0.8766525983810425
aF0.9442322850227356
aa(lp360
F0.6340327858924866
aF0.9534966945648193
aa(lp361
F0.5877811312675476
aF0.9570922255516052
aa(lp362
F0.598922610282898
aF0.9548457860946655
aa(lp363
F0.6470664143562317
aF0.9536964893341064
aa(lp364
F0.738675594329834
aF0.9512903094291687
aa(lp365
F0.4087235927581787
aF0.9527344107627869
aa(lp366
F0.9709001779556274
aF0.9584233164787292
aa(lp367
F0.6028115153312683
aF0.9674253463745117
aa(lp368
F0.848141074180603
aF0.9698809385299683
aa(lp369
F0.7134146690368652
aF0.9800783395767212
aa(lp370
F0.6666455864906311
aF0.9859297275543213
aa(lp371
F0.6506673693656921
aF0.9944449067115784
aa(lp372
F1.005134105682373
aF0.99886155128479
aa(lp373
F0.8940703272819519
aF1.0079776048660278
aa(lp374
F0.6043204665184021
aF1.0128300189971924
aa(lp375
F0.6224430203437805
aF1.0108444690704346
aa(lp376
F0.5658524036407471
aF1.0047663450241089
aa(lp377
F0.7078739404678345
aF1.0011177062988281
aa(lp378
F0.583137035369873
aF0.998248815536499
aa(lp379
F0.7385661602020264
aF0.9952684640884399
aa(lp380
F0.4886285364627838
aF0.9894256591796875
aa(lp381
F0.39980050921440125
aF0.9798732995986938
aa(lp382
F1.0644551515579224
aF0.9836125373840332
aa(lp383
F0.4183535873889923
aF0.9814679622650146
aa(lp384
F0.8103482723236084
aF0.9795743823051453
aa(lp385
F0.6940202116966248
aF0.9764599204063416
aa(lp386
F0.5844491124153137
aF0.9749393463134766
aa(lp387
F0.5333365797996521
aF0.9706601500511169
aa(lp388
F0.837270200252533
aF0.9775270819664001
aa(lp389
F0.7040531039237976
aF0.9685038924217224
aa(lp390
F0.628564715385437
aF0.9698026776313782
aa(lp391
F0.5654531121253967
aF0.9613109230995178
aa(lp392
F0.6620859503746033
aF0.9536126255989075
aa(lp393
F0.5637924075126648
aF0.9504868984222412
aa(lp394
F0.4984467923641205
aF0.9500098824501038
aa(lp395
F0.6075161099433899
aF0.948456883430481
aa(lp396
F0.8761333227157593
aF0.9509977698326111
aa(lp397
F0.7193796038627625
aF0.961772084236145
aa(lp398
F0.3940385580062866
aF0.9676806926727295
aa(lp399
F0.4775141179561615
aF0.9714438319206238
aa(lp400
F0.7233756184577942
aF0.9751570820808411
aa(lp401
F0.7051821351051331
aF0.98296719789505
aa(lp402
F0.5655578970909119
aF0.988692581653595
aa(lp403
F0.5357052683830261
aF0.9901606440544128
aa(lp404
F0.4113573431968689
aF0.9943346977233887
aa(lp405
F0.9868942499160767
aF0.9892725348472595
aa(lp406
F0.7653451561927795
aF0.986626923084259
aa(lp407
F0.7468820810317993
aF0.9911652207374573
aa(lp408
F0.5339310765266418
aF0.9914286136627197
aa(lp409
F0.8930436372756958
aF0.9908498525619507
aa(lp410
F0.5457555651664734
aF0.985252857208252
aa(lp411
F0.7739114761352539
aF0.975301206111908
aa(lp412
F1.1130017042160034
aF0.9735543131828308
aa(lp413
F0.6548911929130554
aF0.9702013731002808
aa(lp414
F0.7903948426246643
aF0.9651059508323669
aa(lp415
F0.4363579750061035
aF0.9594258069992065
aa(lp416
F0.7057974934577942
aF0.9514865279197693
aa(lp417
F0.7915163636207581
aF0.9459777474403381
aa(lp418
F0.4599141776561737
aF0.9420235753059387
aa(lp419
F0.44425347447395325
aF0.9393876791000366
aa(lp420
F0.9398900866508484
aF0.9379554986953735
aa(lp421
F0.6472946405410767
aF0.9448070526123047
aa(lp422
F0.9747843742370605
aF0.9633491039276123
aa(lp423
F0.58452308177948
aF0.9705394506454468
aa(lp424
F0.7210529446601868
aF0.9847226142883301
aa(lp425
F0.4632386565208435
aF0.9950554370880127
aa(lp426
F0.42209529876708984
aF0.9996726512908936
aa(lp427
F0.9031420350074768
aF1.0036691427230835
aa(lp428
F0.9241277575492859
aF1.0060046911239624
aa(lp429
F1.194625735282898
aF1.0076751708984375
aa(lp430
F0.837777316570282
aF1.010480523109436
aa(lp431
F0.718166172504425
aF1.0102488994598389
aa(lp432
F0.7976080775260925
aF1.0099170207977295
aa(lp433
F0.9546006321907043
aF1.0102465152740479
aa(lp434
F0.6518250703811646
aF1.000862956047058
aa(lp435
F0.7729232311248779
aF1.0046181678771973
aa(lp436
F1.0215492248535156
aF0.9936525821685791
aa(lp437
F0.9493526816368103
aF0.9885820150375366
aa(lp438
F0.8226869702339172
aF0.9785175323486328
aa(lp439
F0.4444480836391449
aF0.9720970392227173
aa(lp440
F0.9783763885498047
aF0.9693982005119324
aa(lp441
F0.7083990573883057
aF0.9657420516014099
aa(lp442
F0.6111444234848022
aF0.9657357931137085
aa(lp443
F0.45536139607429504
aF0.9729670286178589
aa(lp444
F0.8957436084747314
aF0.9804502725601196
aa(lp445
F0.6766791939735413
aF0.9885667562484741
aa(lp446
F0.5631490349769592
aF0.9911651611328125
aa(lp447
F0.8234068155288696
aF0.9995089769363403
aa(lp448
F0.844977617263794
aF0.9976905584335327
aa(lp449
F0.8418048024177551
aF0.988211989402771
aa(lp450
F0.391643226146698
aF0.9817571640014648
aa(lp451
F0.6232624650001526
aF0.9662877321243286
aa(lp452
F0.8100125193595886
aF0.960624098777771
aa(lp453
F0.8294159770011902
aF0.9563010931015015
aa(lp454
F0.5749555230140686
aF0.9523317217826843
aa(lp455
F0.8504459261894226
aF0.9503695964813232
aa(lp456
F0.6834172010421753
aF0.9528264999389648
aa(lp457
F0.8621425032615662
aF0.9666008949279785
aa(lp458
F0.5263270139694214
aF0.9676187038421631
aa(lp459
F0.6013488173484802
aF0.9741870164871216
aa(lp460
F0.7857052087783813
aF0.9787518978118896
aa(lp461
F0.8169218301773071
aF0.979739248752594
aa(lp462
F0.549932599067688
aF0.9827902317047119
aa(lp463
F0.6755028367042542
aF0.9830596446990967
aa(lp464
F0.8668994307518005
aF0.9933080077171326
aa(lp465
F0.716693639755249
aF0.9982278347015381
aa(lp466
F0.9053460955619812
aF1.0112004280090332
aa(lp467
F1.1273524761199951
aF1.0272057056427002
aa(lp468
F0.7134542465209961
aF1.029297947883606
aa(lp469
F0.5509162545204163
aF1.0207655429840088
aa(lp470
F0.7383431792259216
aF1.011362910270691
aa(lp471
F0.42484450340270996
aF0.9953163862228394
aa(lp472
F0.5974444150924683
aF0.986328125
aa(lp473
F0.515510618686676
aF0.9853065013885498
aa(lp474
F0.43434441089630127
aF0.9845027327537537
aa(lp475
F0.46974050998687744
aF0.991221010684967
aa(lp476
F1.0040607452392578
aF0.9904613494873047
aa(lp477
F0.6713644862174988
aF0.9989614486694336
aa(lp478
F0.6356725692749023
aF1.000013828277588
aa(lp479
F0.5635483860969543
aF1.0035629272460938
aa(lp480
F0.8425648212432861
aF1.0011273622512817
aa(lp481
F0.7900710105895996
aF0.9995103478431702
aa(lp482
F0.7872692346572876
aF1.0055333375930786
aa(lp483
F0.5246136784553528
aF1.011220932006836
aa(lp484
F0.7536441683769226
aF1.0124305486679077
aa(lp485
F0.6851183772087097
aF1.0140883922576904
aa(lp486
F0.7396736741065979
aF1.0179588794708252
aa(lp487
F0.4132828116416931
aF1.0119242668151855
aa(lp488
F0.5665692687034607
aF1.0117392539978027
aa(lp489
F0.4950896203517914
aF0.998799741268158
aa(lp490
F0.585590660572052
aF0.9847295880317688
aa(lp491
F0.4730393886566162
aF0.976516604423523
aa(lp492
F0.5424984097480774
aF0.9662514328956604
aa(lp493
F0.7051972150802612
aF0.9638807773590088
aa(lp494
F0.8294723033905029
aF0.9697957038879395
aa(lp495
F0.7976658940315247
aF0.966144859790802
aa(lp496
F0.7135488390922546
aF0.9643726348876953
aa(lp497
F0.6772286891937256
aF0.9670326709747314
aa(lp498
F0.5454629063606262
aF0.9717197418212891
aa(lp499
F0.5119031667709351
aF0.9764320850372314
aa(lp500
F0.921105146408081
aF0.9918463826179504
aa(lp501
F0.8285641074180603
aF0.999201238155365
aa(lp502
F0.6412006616592407
aF1.0034908056259155
aa(lp503
F0.5035985112190247
aF1.0101326704025269
aa(lp504
F0.43895262479782104
aF1.0194662809371948
aa(lp505
F0.5750137567520142
aF1.0222141742706299
aa(lp506
F0.43896567821502686
aF1.0181788206100464
aa(lp507
F0.9925190210342407
aF1.0107473134994507
aa(lp508
F0.6054927706718445
aF1.0026274919509888
aa(lp509
F0.683314323425293
aF0.9957068562507629
aa(lp510
F0.5648735761642456
aF0.9930232763290405
aa(lp511
F0.6775289177894592
aF0.9893121123313904
aa(lp512
F0.7019482254981995
aF0.9859036803245544
aa(lp513
F0.8461300134658813
aF0.9800370335578918
aa(lp514
F0.369812548160553
aF0.9753932356834412
aa(lp515
F0.6868372559547424
aF0.9828959703445435
aa(lp516
F0.5097591280937195
aF0.986231803894043
aa(lp517
F0.6234086751937866
aF0.9963207840919495
aa(lp518
F0.7051458954811096
aF1.0065642595291138
aa(lp519
F0.6434301733970642
aF1.0206592082977295
aa(lp520
F0.3640393614768982
aF1.02550208568573
aa(lp521
F1.17318856716156
aF1.044387698173523
aa(lp522
F0.9272894263267517
aF1.053802251815796
aa(lp523
F0.37092992663383484
aF1.0571116209030151
aa(lp524
F0.5163990259170532
aF1.0438649654388428
aa(lp525
F0.774554967880249
aF1.0307371616363525
aa(lp526
F0.7553173303604126
aF1.015944480895996
aa(lp527
F0.7945082783699036
aF0.9945362210273743
aa(lp528
F0.3838701844215393
aF0.9849380850791931
aa(lp529
F1.1464314460754395
aF0.9790741205215454
aa(lp530
F0.5425575375556946
aF0.9704329967498779
aa(lp531
F0.6198979616165161
aF0.9661056399345398
aa(lp532
F0.44526994228363037
aF0.9626114964485168
aa(lp533
F0.39717501401901245
aF0.9703629612922668
aa(lp534
F0.6951048374176025
aF0.9814612865447998
aa(lp535
F0.4619104564189911
aF1.0038176774978638
aa(lp536
F0.564297080039978
aF1.0163465738296509
aa(lp537
F0.6281731128692627
aF1.0228434801101685
aa(lp538
F0.9572815299034119
aF1.0389907360076904
aa(lp539
F0.8721272349357605
aF1.046571969985962
aa(lp540
F0.7465306520462036
aF1.0367658138275146
aa(lp541
F0.9699129462242126
aF1.0375202894210815
aa(lp542
F0.6150383353233337
aF1.0195415019989014
aa(lp543
F1.0285778045654297
aF1.0112907886505127
aa(lp544
F0.7930536866188049
aF1.0000696182250977
aa(lp545
F0.7451462745666504
aF0.992379903793335
aa(lp546
F0.7613856792449951
aF0.996366024017334
aa(lp547
F0.8188802003860474
aF0.9991819858551025
aa(lp548
F0.4731881320476532
aF1.0056068897247314
aa(lp549
F0.6453909873962402
aF0.9978649020195007
aa(lp550
F0.5786257386207581
aF0.991354763507843
aa(lp551
F0.46489444375038147
aF0.9817802309989929
aa(lp552
F1.0492762327194214
aF0.9781886339187622
aa(lp553
F0.9101392030715942
aF0.9719382524490356
aa(lp554
F0.5900555849075317
aF0.9580267071723938
aa(lp555
F0.8265530467033386
aF0.9537200331687927
aa(lp556
F0.5522303581237793
aF0.959975004196167
aa(lp557
F0.5980242490768433
aF0.9639132022857666
aa(lp558
F0.8046136498451233
aF0.9762040376663208
aa(lp559
F0.5422105193138123
aF0.9776358604431152
aa(lp560
F0.7295891642570496
aF0.9801384210586548
aa(lp561
F0.8337534070014954
aF0.9790080189704895
aa(lp562
F0.7702481150627136
aF0.9829844236373901
aa(lp563
F0.6954569220542908
aF0.9845092296600342
aa(lp564
F0.7332051396369934
aF0.9882258176803589
aa(lp565
F0.8722673654556274
aF0.9965659379959106
aa(lp566
F0.7211400866508484
aF1.0075762271881104
aa(lp567
F0.44919267296791077
aF1.014514446258545
aa(lp568
F0.7611528038978577
aF1.0148128271102905
aa(lp569
F0.49719274044036865
aF1.0119750499725342
aa(lp570
F0.7463384866714478
aF1.0222649574279785
aa(lp571
F0.6694690585136414
aF1.0221551656723022
aa(lp572
F0.32875344157218933
aF1.0225749015808105
aa(lp573
F0.5755201578140259
aF1.020164966583252
aa(lp574
F0.47955867648124695
aF1.0171316862106323
aa(lp575
F0.8367878198623657
aF1.00901460647583
aa(lp576
F0.5034148097038269
aF1.0029240846633911
aa(lp577
F0.6544942259788513
aF0.9889402389526367
aa(lp578
F0.4440845549106598
aF0.9798670411109924
aa(lp579
F0.7265528440475464
aF0.9755269885063171
aa(lp580
F0.681905210018158
aF0.970625638961792
aa(lp581
F0.8736958503723145
aF0.9721990823745728
aa(lp582
F0.48302149772644043
aF0.9750756025314331
aa(lp583
F0.8459882736206055
aF0.9824228882789612
aa(lp584
F0.9811373353004456
aF0.9954236149787903
aa(lp585
F0.6782825589179993
aF1.0133973360061646
aa(lp586
F0.5722812414169312
aF1.0289394855499268
aa(lp587
F0.44138333201408386
aF1.0396897792816162
aa(lp588
F0.5578495264053345
aF1.0403342247009277
aa(lp589
F0.43701300024986267
aF1.0365432500839233
aa(lp590
F0.4751012921333313
aF1.0241072177886963
aa(lp591
F0.6108105182647705
aF1.0046656131744385
aa(lp592
F0.802911639213562
aF0.9864905476570129
aa(lp593
F0.5800301432609558
aF0.9720079302787781
aa(lp594
F0.5673798322677612
aF0.964205265045166
aa(lp595
F0.9938234686851501
aF0.9559797048568726
aa(lp596
F0.4718811810016632
aF0.9579326510429382
aa(lp597
F1.0809417963027954
aF0.9636475443840027
aa(lp598
F0.4373978078365326
aF0.9726009964942932
aa(lp599
F0.5726417303085327
aF0.9848142862319946
aa(lp600
F0.9600073099136353
aF0.9926300048828125
aa(lp601
F1.066216230392456
aF1.00543212890625
aa(lp602
F0.5809164643287659
aF1.0137983560562134
aa(lp603
F0.5030339956283569
aF1.01352059841156
aa(lp604
F0.44413068890571594
aF1.012132167816162
aa(lp605
F0.7875379920005798
aF1.0038425922393799
aa(lp606
F0.9871951341629028
aF1.0006192922592163
aa(lp607
F0.46428462862968445
aF0.9997938275337219
aa(lp608
F0.5515263080596924
aF0.996065616607666
aa(lp609
F0.44956424832344055
aF0.9882693290710449
aa(lp610
F0.41556021571159363
aF0.9828712940216064
aa(lp611
F0.6768069267272949
aF0.9675614833831787
aa(lp612
F0.6091095209121704
aF0.9526829719543457
aa(lp613
F0.6572024822235107
aF0.9403547644615173
aa(lp614
F0.43760621547698975
aF0.9306820631027222
aa(lp615
F0.5059460997581482
aF0.9335217475891113
aa(lp616
F0.4085812270641327
aF0.9401524662971497
aa(lp617
F0.46464401483535767
aF0.9470096826553345
aa(lp618
F0.7180860042572021
aF0.9612674117088318
aa(lp619
F0.7230319380760193
aF0.9727984070777893
aa(lp620
F0.8328868746757507
aF0.9802143573760986
aa(lp621
F0.7268050312995911
aF0.9968538284301758
aa(lp622
F0.4672510027885437
aF1.0065793991088867
aa(lp623
F0.7592089176177979
aF1.0215497016906738
aa(lp624
F0.8319413065910339
aF1.0439573526382446
aa(lp625
F0.5694602727890015
aF1.0517016649246216
aa(lp626
F0.9925073981285095
aF1.0589747428894043
aa(lp627
F0.6735969185829163
aF1.0578856468200684
aa(lp628
F0.8514736294746399
aF1.0405443906784058
aa(lp629
F0.5359032154083252
aF1.0305403470993042
aa(lp630
F0.5313124656677246
aF1.0231099128723145
aa(lp631
F0.6995097398757935
aF1.0024811029434204
aa(lp632
F0.7617827653884888
aF0.9859516024589539
aa(lp633
F0.7128576040267944
aF0.9734609723091125
aa(lp634
F0.5038147568702698
aF0.9604775905609131
aa(lp635
F0.4012526273727417
aF0.9461332559585571
aa(lp636
F0.4779205918312073
aF0.9431958198547363
aa(lp637
F0.7229732871055603
aF0.9438028335571289
aa(lp638
F0.589548647403717
aF0.9458542466163635
aa(lp639
F0.8826107978820801
aF0.9544768333435059
aa(lp640
F0.9040586948394775
aF0.9705199003219604
aa(lp641
F0.9044809341430664
aF0.9859542846679688
aa(lp642
F0.8825393319129944
aF1.008378028869629
aa(lp643
F0.5700724124908447
aF1.025930404663086
aa(lp644
F0.43602558970451355
aF1.0425739288330078
aa(lp645
F0.6469268202781677
aF1.0578498840332031
aa(lp646
F0.8413518667221069
aF1.0628634691238403
aa(lp647
F0.5255727767944336
aF1.0571393966674805
aa(lp648
F0.5729729533195496
aF1.0491929054260254
aa(lp649
F0.6607673764228821
aF1.0328261852264404
aa(lp650
F0.5890427231788635
aF1.0154852867126465
aa(lp651
F0.8865596652030945
aF1.008937120437622
aa(lp652
F0.652166485786438
aF1.0069069862365723
aa(lp653
F0.5228893160820007
aF0.997664749622345
aa(lp654
F0.5867593884468079
aF1.000087857246399
aa(lp655
F0.441211462020874
aF0.9948447346687317
aa(lp656
F0.8439026474952698
aF0.9924160242080688
aa(lp657
F0.6430217027664185
aF0.9874215722084045
aa(lp658
F0.5376112461090088
aF0.9939196109771729
aa(lp659
F0.3805895447731018
aF0.9936983585357666
aa(lp660
F0.7396405339241028
aF0.9972507953643799
aa(lp661
F1.0007082223892212
aF1.0078859329223633
aa(lp662
F0.5150940418243408
aF1.0138847827911377
aa(lp663
F0.8592191934585571
aF1.0286741256713867
aa(lp664
F0.4924522042274475
aF1.031072974205017
aa(lp665
F0.8371543288230896
aF1.0427017211914062
aa(lp666
F0.5273303985595703
aF1.046766996383667
aa(lp667
F0.7102565169334412
aF1.058271884918213
aa(lp668
F0.4612680673599243
aF1.059296727180481
aa(lp669
F0.4498532712459564
aF1.0616897344589233
aa(lp670
F0.588364839553833
aF1.0553313493728638
aa(lp671
F0.6192713975906372
aF1.0467278957366943
aa(lp672
F0.8054710030555725
aF1.0343509912490845
aa(lp673
F0.5580384135246277
aF1.016262173652649
aa(lp674
F0.5028775930404663
aF0.989892840385437
aa(lp675
F0.8093481063842773
aF0.9694375991821289
aa(lp676
F0.7143182158470154
aF0.9470505714416504
aa(lp677
F0.4596621096134186
aF0.9236153364181519
aa(lp678
F0.7018064260482788
aF0.9040518999099731
aa(lp679
F0.5872244238853455
aF0.8937539458274841
aa(lp680
F0.3494490385055542
aF0.8941831588745117
aa(lp681
F0.6469663977622986
aF0.8947558999061584
aa(lp682
F0.5901119112968445
aF0.9138877391815186
aa(lp683
F0.5893091559410095
aF0.9256199598312378
aa(lp684
F0.5319492816925049
aF0.9469079971313477
aa(lp685
F0.6077715158462524
aF0.9733805656433105
aa(lp686
F0.7092380523681641
aF0.9963123202323914
aa(lp687
F0.3789907991886139
aF1.0119514465332031
aa(lp688
F0.5819372534751892
aF1.0276155471801758
aa(lp689
F0.5073394775390625
aF1.0377179384231567
aa(lp690
F0.3791264593601227
aF1.0465158224105835
aa(lp691
F0.505138635635376
aF1.0548439025878906
aa(lp692
F0.7906379699707031
aF1.0560442209243774
aa(lp693
F0.503574788570404
aF1.0569685697555542
aa(lp694
F0.8589276075363159
aF1.0653715133666992
aa(lp695
F0.459538072347641
aF1.050046682357788
aa(lp696
F0.4492665231227875
aF1.028828501701355
aa(lp697
F0.7684709429740906
aF1.0247249603271484
aa(lp698
F0.6134437322616577
aF1.005374789237976
aa(lp699
F0.8808943033218384
aF0.9885498881340027
aa(lp700
F0.3905687630176544
aF0.9762624502182007
aa(lp701
F0.7292178273200989
aF0.9704903364181519
aa(lp702
F0.5055387020111084
aF0.9631022810935974
aa(lp703
F0.6109294891357422
aF0.9598062038421631
aa(lp704
F0.8500948548316956
aF0.9534900188446045
aa(lp705
F0.4796888530254364
aF0.9544991850852966
aa(lp706
F0.6500068306922913
aF0.9547215700149536
aa(lp707
F0.6561080813407898
aF0.9603855013847351
aa(lp708
F0.6060899496078491
aF0.9620208144187927
aa(lp709
F0.7410554885864258
aF0.9646098613739014
aa(lp710
F0.7812176942825317
aF0.9683930277824402
aa(lp711
F0.46932950615882874
aF0.9754343628883362
aa(lp712
F0.44917628169059753
aF0.9844093918800354
aa(lp713
F0.5460191369056702
aF0.9923714399337769
aa(lp714
F0.8940061926841736
aF0.9998975992202759
aa(lp715
F0.5757071375846863
aF0.9963959455490112
aa(lp716
F0.4874533414840698
aF0.9944140315055847
aa(lp717
F0.7915821075439453
aF0.9950622320175171
aa(lp718
F0.5058846473693848
aF0.9946713447570801
aa(lp719
F0.6655303835868835
aF0.9986260533332825
aa(lp720
F0.7344338893890381
aF0.9989349842071533
aa(lp721
F0.6006569862365723
aF0.995189368724823
aa(lp722
F0.5243198275566101
aF0.9924686551094055
aa(lp723
F0.5656735897064209
aF0.9860655069351196
aa(lp724
F0.6784951686859131
aF0.9808353185653687
aa(lp725
F0.6052283048629761
aF0.9705032706260681
aa(lp726
F0.6161377429962158
aF0.9649972915649414
aa(lp727
F0.5256363749504089
aF0.9619974493980408
aa(lp728
F0.43006381392478943
aF0.9616485834121704
aa(lp729
F0.9730070233345032
aF0.9626162052154541
aa(lp730
F0.47867029905319214
aF0.9636853933334351
aa(lp731
F0.6930475234985352
aF0.9765100479125977
aa(lp732
F1.0771900415420532
aF0.9897181391716003
aa(lp733
F0.8061326146125793
aF0.9999579191207886
aa(lp734
F0.5695475339889526
aF1.0032814741134644
aa(lp735
F0.6730229258537292
aF1.0106284618377686
aa(lp736
F0.5141129493713379
aF1.0138753652572632
aa(lp737
F0.663722813129425
aF1.0250234603881836
aa(lp738
F0.8562168478965759
aF1.0271357297897339
aa(lp739
F0.4603768289089203
aF1.0278706550598145
aa(lp740
F0.7507300972938538
aF1.0231525897979736
aa(lp741
F0.37413251399993896
aF1.0124497413635254
aa(lp742
F0.7244094610214233
aF1.006022334098816
aa(lp743
F0.4310031235218048
aF0.9980605840682983
aa(lp744
F0.8713993430137634
aF0.9963457584381104
aa(lp745
F0.43104466795921326
aF0.9944614171981812
aa(lp746
F0.799074113368988
aF0.9952390789985657
aa(lp747
F0.40337955951690674
aF0.9941097497940063
aa(lp748
F0.6471627354621887
aF0.9961647987365723
aa(lp749
F0.7639598846435547
aF1.0072813034057617
aa(lp750
F0.6266107559204102
aF1.018792986869812
aa(lp751
F0.33192089200019836
aF1.0179896354675293
aa(lp752
F0.4892146587371826
aF1.02061927318573
aa(lp753
F0.49914756417274475
aF1.0210399627685547
aa(lp754
F0.5236909985542297
aF1.0222833156585693
aa(lp755
F0.6648461818695068
aF1.0231730937957764
aa(lp756
F0.31357648968696594
aF1.021631121635437
aa(lp757
F0.6520828008651733
aF1.0255796909332275
aa(lp758
F0.7692567706108093
aF1.0334588289260864
aa(lp759
F0.301024854183197
aF1.0283671617507935
aa(lp760
F0.5290821194648743
aF1.0234652757644653
aa(lp761
F0.5021075010299683
aF1.0146900415420532
aa(lp762
F0.41842058300971985
aF1.0015063285827637
aa(lp763
F0.6300224661827087
aF0.9937395453453064
aa(lp764
F0.82952880859375
aF0.9874927401542664
aa(lp765
F0.8265577554702759
aF0.9866214394569397
aa(lp766
F0.5947892069816589
aF0.980442464351654
aa(lp767
F0.34079936146736145
aF0.9754892587661743
aa(lp768
F0.5354111790657043
aF0.9747019410133362
aa(lp769
F0.48984742164611816
aF0.9680383801460266
aa(lp770
F0.8540884256362915
aF0.9695908427238464
aa(lp771
F0.6023457646369934
aF0.9654082655906677
aa(lp772
F0.5273952484130859
aF0.9672333598136902
aa(lp773
F0.539741575717926
aF0.9665345549583435
aa(lp774
F0.6720169186592102
aF0.9709179997444153
aa(lp775
F0.5788592100143433
aF0.9773900508880615
aa(lp776
F0.669934868812561
aF0.9803282618522644
aa(lp777
F0.5289371609687805
aF0.9863955974578857
aa(lp778
F0.600857138633728
aF0.9883460402488708
aa(lp779
F0.6532038450241089
aF0.9964579939842224
aa(lp780
F0.376079797744751
aF0.9943451285362244
aa(lp781
F0.9033586978912354
aF0.9938257336616516
aa(lp782
F0.5079663991928101
aF0.9897055625915527
aa(lp783
F1.1077113151550293
aF0.9957280158996582
aa(lp784
F0.6275469660758972
aF1.0027376413345337
aa(lp785
F0.8710141777992249
aF1.010801911354065
aa(lp786
F0.6251010894775391
aF1.0198694467544556
aa(lp787
F0.6270930171012878
aF1.027076005935669
aa(lp788
F0.5433000922203064
aF1.0371755361557007
aa(lp789
F0.790848433971405
aF1.0519561767578125
aa(lp790
F0.7589563131332397
aF1.054746150970459
aa(lp791
F0.6436561942100525
aF1.060320496559143
aa(lp792
F0.6062819957733154
aF1.0627679824829102
aa(lp793
F0.5397047996520996
aF1.064178705215454
aa(lp794
F0.5656415820121765
aF1.0593217611312866
aa(lp795
F0.4683930575847626
aF1.055191993713379
aa(lp796
F0.7246806025505066
aF1.0449861288070679
aa(lp797
F0.35324782133102417
aF1.0301575660705566
aa(lp798
F0.734989583492279
aF1.0186574459075928
aa(lp799
F0.6384270191192627
aF1.0086262226104736
aa(lp800
F0.3787558972835541
aF0.9925680160522461
aa(lp801
F1.048659086227417
aF0.9902843832969666
aa(lp802
F0.5939674973487854
aF0.9894757866859436
aa(lp803
F0.4876057505607605
aF0.9881098866462708
aa(lp804
F0.4815579652786255
aF0.9836563467979431
aa(lp805
F0.6050621271133423
aF0.9786769151687622
aa(lp806
F0.749109148979187
aF0.974234938621521
aa(lp807
F0.7652612924575806
aF0.9706987738609314
aa(lp808
F0.8332889676094055
aF0.9666630625724792
aa(lp809
F0.7770308256149292
aF0.9683932065963745
aa(lp810
F0.7612999081611633
aF0.9726356267929077
aa(lp811
F0.747734010219574
aF0.9768427014350891
aa(lp812
F0.6913231611251831
aF0.985366702079773
aa(lp813
F0.6189360618591309
aF0.9946615695953369
aa(lp814
F0.33014827966690063
aF1.0074824094772339
aa(lp815
F0.4736684262752533
aF1.020257830619812
aa(lp816
F0.7538305521011353
aF1.0382012128829956
aa(lp817
F0.9961645603179932
aF1.0526443719863892
aa(lp818
F0.5735130310058594
aF1.0586172342300415
aa(lp819
F0.5541693568229675
aF1.0664427280426025
aa(lp820
F0.6838048696517944
aF1.0710463523864746
aa(lp821
F0.9785856008529663
aF1.0774321556091309
aa(lp822
F0.6536611914634705
aF1.0748786926269531
aa(lp823
F0.8717026114463806
aF1.0713703632354736
aa(lp824
F0.8167915940284729
aF1.0663344860076904
aa(lp825
F0.8692451119422913
aF1.0635380744934082
aa(lp826
F0.6121381521224976
aF1.04905366897583
aa(lp827
F0.43736886978149414
aF1.0368945598602295
aa(lp828
F0.46416425704956055
aF1.028730034828186
aa(lp829
F0.4136909246444702
aF1.013606071472168
aa(lp830
F0.7181373238563538
aF1.0026353597640991
aa(lp831
F0.6457067131996155
aF0.9942939281463623
aa(lp832
F0.5672916769981384
aF0.9903380870819092
aa(lp833
F0.9234416484832764
aF0.9917965531349182
aa(lp834
F0.695756733417511
aF1.0001440048217773
aa(lp835
F1.124871850013733
aF1.0102424621582031
aa(lp836
F0.5543253421783447
aF1.0220036506652832
aa(lp837
F0.9809499382972717
aF1.034001350402832
aa(lp838
F0.507191002368927
aF1.0524189472198486
aa(lp839
F0.6435758471488953
aF1.0648789405822754
aa(lp840
F0.6928167343139648
aF1.070188283920288
aa(lp841
F0.613106906414032
aF1.0811158418655396
aa(lp842
F0.9598369002342224
aF1.088734745979309
aa(lp843
F0.7069647312164307
aF1.0835583209991455
aa(lp844
F0.5523845553398132
aF1.0793930292129517
aa(lp845
F0.8585036396980286
aF1.0765281915664673
aa(lp846
F0.616815984249115
aF1.0710035562515259
aa(lp847
F0.5198493599891663
aF1.0728819370269775
aa(lp848
F0.5214675068855286
aF1.0672309398651123
aa(lp849
F0.923270583152771
aF1.0639839172363281
aa(lp850
F0.7937960624694824
aF1.060144066810608
aa(lp851
F0.8736628293991089
aF1.063295602798462
aa(lp852
F0.9828966856002808
aF1.0585931539535522
aa(lp853
F0.5706933736801147
aF1.0548840761184692
aa(lp854
F0.7117725610733032
aF1.0555012226104736
aa(lp855
F0.3742098808288574
aF1.05084228515625
aa(lp856
F0.5469231009483337
aF1.042043924331665
aa(lp857
F0.4622510075569153
aF1.0328023433685303
aa(lp858
F0.7419504523277283
aF1.0302670001983643
aa(lp859
F0.9084613919258118
aF1.0257556438446045
aa(lp860
F0.8993675112724304
aF1.0235793590545654
aa(lp861
F0.7533549666404724
aF1.031406283378601
aa(lp862
F0.5463106036186218
aF1.0329163074493408
aa(lp863
F0.744961678981781
aF1.0418537855148315
aa(lp864
F0.6826661229133606
aF1.0501617193222046
aa(lp865
F0.4486343562602997
aF1.0616322755813599
aa(lp866
F0.49760138988494873
aF1.0679012537002563
aa(lp867
F1.0218578577041626
aF1.0712183713912964
aa(lp868
F0.5338805913925171
aF1.0684013366699219
aa(lp869
F0.38964617252349854
aF1.0685639381408691
aa(lp870
F0.6920014023780823
aF1.070145606994629
aa(lp871
F0.8945066928863525
aF1.0686304569244385
aa(lp872
F0.49511611461639404
aF1.0664699077606201
aa(lp873
F0.6001589894294739
aF1.0592752695083618
aa(lp874
F0.6541842818260193
aF1.06239652633667
aa(lp875
F0.7399687767028809
aF1.0623313188552856
aa(lp876
F0.6630544066429138
aF1.0622471570968628
aa(lp877
F0.589089572429657
aF1.0644315481185913
aa(lp878
F0.8776142001152039
aF1.0636149644851685
aa(lp879
F0.8945688605308533
aF1.06326425075531
aa(lp880
F0.46997562050819397
aF1.0620946884155273
aa(lp881
F0.6794726848602295
aF1.0578480958938599
aa(lp882
F0.4567989110946655
aF1.051121473312378
aa(lp883
F0.6056575775146484
aF1.0456154346466064
aa(lp884
F0.3736661672592163
aF1.040088176727295
aa(lp885
F1.0270651578903198
aF1.035339593887329
aa(lp886
F0.7089859247207642
aF1.0311702489852905
aa(lp887
F0.29764366149902344
aF1.028809905052185
aa(lp888
F0.5788059234619141
aF1.035019040107727
aa(lp889
F0.5711542963981628
aF1.0381953716278076
aa(lp890
F0.7525915503501892
aF1.0499846935272217
aa(lp891
F0.5973599553108215
aF1.0655505657196045
aa(lp892
F0.8673980236053467
aF1.074353575706482
aa(lp893
F0.45834100246429443
aF1.08826744556427
aa(lp894
F0.9483572244644165
aF1.0984008312225342
aa(lp895
F0.5857207775115967
aF1.0993428230285645
aa(lp896
F0.42247244715690613
aF1.0936617851257324
aa(lp897
F0.7276850342750549
aF1.0905780792236328
aa(lp898
F0.807742178440094
aF1.08114755153656
aa(lp899
F0.6420931816101074
aF1.071662425994873
aa(lp900
F0.8106582164764404
aF1.0598726272583008
aa(lp901
F0.6394380331039429
aF1.0479891300201416
aa(lp902
F0.5284770131111145
aF1.0431771278381348
aa(lp903
F0.5474753379821777
aF1.0398067235946655
aa(lp904
F0.5330135226249695
aF1.0388007164001465
aa(lp905
F0.6623482704162598
aF1.0406533479690552
aa(lp906
F0.699860155582428
aF1.046507716178894
aa(lp907
F0.40149587392807007
aF1.0483733415603638
aa(lp908
F0.8077269196510315
aF1.0558829307556152
aa(lp909
F0.7214294075965881
aF1.0654382705688477
aa(lp910
F0.5566591024398804
aF1.0716266632080078
aa(lp911
F0.7773467302322388
aF1.075027585029602
aa(lp912
F0.8059813976287842
aF1.079695463180542
aa(lp913
F0.8873825073242188
aF1.0835766792297363
aa(lp914
F0.4409085512161255
aF1.0901883840560913
aa(lp915
F0.8928408026695251
aF1.096428632736206
aa(lp916
F0.7701892256736755
aF1.1024081707000732
aa(lp917
F1.0700205564498901
aF1.1087473630905151
aa(lp918
F0.7393100261688232
aF1.1119577884674072
aa(lp919
F0.9917208552360535
aF1.1130223274230957
aa(lp920
F0.4918244183063507
aF1.1196610927581787
aa(lp921
F0.6040230393409729
aF1.1162004470825195
aa(lp922
F0.3739514946937561
aF1.107831597328186
aa(lp923
F0.8816092014312744
aF1.0973700284957886
aa(lp924
F0.8294165730476379
aF1.0922563076019287
aa(lp925
F0.4138169586658478
aF1.0820088386535645
aa(lp926
F0.7952049374580383
aF1.0736011266708374
aa(lp927
F0.9126929640769958
aF1.0675281286239624
aa(lp928
F0.6833008527755737
aF1.0704514980316162
aa(lp929
F0.6704335808753967
aF1.0784894227981567
aa(lp930
F0.442092627286911
aF1.0816071033477783
aa(lp931
F0.8675925731658936
aF1.0857348442077637
aa(lp932
F0.7324177622795105
aF1.0879857540130615
aa(lp933
F0.5599209666252136
aF1.0996859073638916
aa(lp934
F0.8908483386039734
aF1.1141741275787354
aa(lp935
F0.5943154692649841
aF1.1262174844741821
aa(lp936
F0.6457987427711487
aF1.1354070901870728
aa(lp937
F0.9544040560722351
aF1.1561760902404785
aa(lp938
F0.44045379757881165
aF1.159388542175293
aa(lp939
F0.449959933757782
aF1.1670314073562622
aa(lp940
F0.8566471338272095
aF1.165866494178772
aa(lp941
F0.5405541658401489
aF1.1570312976837158
aa(lp942
F0.6491503715515137
aF1.1491868495941162
aa(lp943
F0.5449048280715942
aF1.1412733793258667
aa(lp944
F0.4147147238254547
aF1.124143362045288
aa(lp945
F0.5371041893959045
aF1.1079705953598022
aa(lp946
F0.6468362212181091
aF1.0911507606506348
aa(lp947
F0.912262499332428
aF1.0723156929016113
aa(lp948
F0.6812172532081604
aF1.057603359222412
aa(lp949
F0.8879650831222534
aF1.0449192523956299
aa(lp950
F0.6099094152450562
aF1.0370835065841675
aa(lp951
F0.783562958240509
aF1.0340410470962524
aa(lp952
F0.9119146466255188
aF1.0405863523483276
aa(lp953
F1.0195517539978027
aF1.0501893758773804
aa(lp954
F0.8435001969337463
aF1.0676442384719849
aa(lp955
F0.4377109408378601
aF1.086116909980774
aa(lp956
F0.8791481256484985
aF1.1113649606704712
aa(lp957
F1.0310754776000977
aF1.1299949884414673
aa(lp958
F0.5065825581550598
aF1.1335175037384033
aa(lp959
F0.50086909532547
aF1.1370816230773926
aa(lp960
F0.8413167595863342
aF1.1324962377548218
aa(lp961
F0.7021052241325378
aF1.1257089376449585
aa(lp962
F0.6573230028152466
aF1.1130847930908203
aa(lp963
F0.7278397679328918
aF1.1096761226654053
aa(lp964
F0.5520761013031006
aF1.1030038595199585
aa(lp965
F0.42648744583129883
aF1.0980159044265747
aa(lp966
F0.8526067137718201
aF1.0974897146224976
aa(lp967
F0.3998008370399475
aF1.0957279205322266
aa(lp968
F0.322374552488327
aF1.0935850143432617
aa(lp969
F0.7477083206176758
aF1.0897092819213867
aa(lp970
F0.5501011610031128
aF1.0897901058197021
aa(lp971
F0.8902298212051392
aF1.0951863527297974
aa(lp972
F0.5276208519935608
aF1.0992634296417236
aa(lp973
F0.5789932608604431
aF1.1067092418670654
aa(lp974
F0.816836953163147
aF1.1124629974365234
aa(lp975
F0.6919177770614624
aF1.1151171922683716
aa(lp976
F0.4830021858215332
aF1.1146273612976074
aa(lp977
F0.5894472599029541
aF1.110688328742981
aa(lp978
F0.7135968804359436
aF1.1147453784942627
aa(lp979
F0.8416991233825684
aF1.111846685409546
aa(lp980
F0.7492695450782776
aF1.1112308502197266
aa(lp981
F0.6497642993927002
aF1.1080067157745361
aa(lp982
F0.7978204488754272
aF1.1033265590667725
aa(lp983
F0.6567401885986328
aF1.103509783744812
aa(lp984
F0.9038386940956116
aF1.1038813591003418
aa(lp985
F0.3478393256664276
aF1.1037511825561523
aa(lp986
F0.7460219264030457
aF1.0989879369735718
aa(lp987
F0.3473624587059021
aF1.0940405130386353
aa(lp988
F0.5489159822463989
aF1.1005587577819824
aa(lp989
F0.33059966564178467
aF1.106704592704773
aa(lp990
F0.5422578454017639
aF1.1085065603256226
aa(lp991
F0.5570404529571533
aF1.1078567504882812
aa(lp992
F0.7851454019546509
aF1.115341067314148
aa(lp993
F0.9708234071731567
aF1.1186492443084717
aa(lp994
F0.45515161752700806
aF1.1183202266693115
aa(lp995
F0.6985778212547302
aF1.1211410760879517
aa(lp996
F0.8112702369689941
aF1.129591703414917
aa(lp997
F0.46005979180336
aF1.1361761093139648
aa(lp998
F0.7302977442741394
aF1.1500182151794434
aa(lp999
F0.3899230360984802
aF1.164664387702942
aa(lp1000
F0.7417932152748108
aF1.1837108135223389
aa(lp1001
F0.9120023846626282
aF1.196670651435852
aa(lp1002
F0.6385993361473083
aF1.2030882835388184
aa(lp1003
F0.8301221132278442
aF1.1954728364944458
aa(lp1004
F0.8124085068702698
aF1.1913414001464844
aa(lp1005
F0.4239082336425781
aF1.1759624481201172
aa(lp1006
F0.7079676985740662
aF1.1586016416549683
aa(lp1007
F0.7011694312095642
aF1.1428923606872559
aa(lp1008
F0.3465096056461334
aF1.1230144500732422
aa(lp1009
F0.4585074484348297
aF1.1057206392288208
aa(lp1010
F0.7195023894309998
aF1.0905344486236572
aa(lp1011
F0.8232491612434387
aF1.0855202674865723
aa(lp1012
F0.9860630631446838
aF1.0857737064361572
aa(lp1013
F0.6816173195838928
aF1.0846763849258423
aa(lp1014
F0.6292313933372498
aF1.0920982360839844
aa(lp1015
F0.8431025743484497
aF1.1055476665496826
aa(lp1016
F0.4834385812282562
aF1.1195480823516846
aa(lp1017
F0.37902241945266724
aF1.1336766481399536
aa(lp1018
F0.5359545946121216
aF1.1459002494812012
aa(lp1019
F0.2997787892818451
aF1.1430350542068481
aa(lp1020
F0.6737179756164551
aF1.1422901153564453
aa(lp1021
F0.5342090129852295
aF1.144235610961914
aa(lp1022
F0.7450581192970276
aF1.1427408456802368
aa(lp1023
F0.4205680787563324
aF1.136035442352295
aa(lp1024
F0.5482642650604248
aF1.1271476745605469
aa(lp1025
F0.4431346356868744
aF1.1193983554840088
aa(lp1026
F0.6684579253196716
aF1.1143463850021362
aa(lp1027
F0.6614225506782532
aF1.1116927862167358
aa(lp1028
F0.4312101900577545
aF1.1057623624801636
aa(lp1029
F0.6794795989990234
aF1.1010515689849854
aa(lp1030
F0.536538302898407
aF1.1004035472869873
aa(lp1031
F0.8070212006568909
aF1.099132776260376
aa(lp1032
F0.44459405541419983
aF1.1042413711547852
aa(lp1033
F0.5942150950431824
aF1.1136143207550049
aa(lp1034
F0.511133074760437
aF1.1166942119598389
aa(lp1035
F0.8297362923622131
aF1.1267483234405518
aa(lp1036
F0.8293755650520325
aF1.1426383256912231
aa(lp1037
F0.8049447536468506
aF1.1583164930343628
aa(lp1038
F0.6679713129997253
aF1.1710880994796753
aa(lp1039
F0.6515451073646545
aF1.183836579322815
aa(lp1040
F0.5679218173027039
aF1.1875629425048828
aa(lp1041
F0.9545664191246033
aF1.1974756717681885
aa(lp1042
F0.5886209011077881
aF1.2003577947616577
aa(lp1043
F0.6051274538040161
aF1.2042344808578491
aa(lp1044
F0.5355028510093689
aF1.202467918395996
aa(lp1045
F0.6144306659698486
aF1.199586272239685
aa(lp1046
F0.7162977457046509
aF1.1959360837936401
aa(lp1047
F0.7072362303733826
aF1.185656189918518
aa(lp1048
F0.6449828147888184
aF1.1692957878112793
aa(lp1049
F0.6519663333892822
aF1.1607134342193604
aa(lp1050
F0.6195886135101318
aF1.1486201286315918
aa(lp1051
F0.7574971914291382
aF1.1434597969055176
aa(lp1052
F0.583565890789032
aF1.1352596282958984
aa(lp1053
F0.980373740196228
aF1.131007432937622
aa(lp1054
F0.5644413232803345
aF1.1302261352539062
aa(lp1055
F0.819303572177887
aF1.133642315864563
aa(lp1056
F0.5134180188179016
aF1.1407305002212524
aa(lp1057
F0.6937614679336548
aF1.1398026943206787
aa(lp1058
F0.48321300745010376
aF1.1460758447647095
aa(lp1059
F0.9572355151176453
aF1.1582096815109253
aa(lp1060
F0.6722751259803772
aF1.1666268110275269
aa(lp1061
F0.5380424857139587
aF1.1787558794021606
aa(lp1062
F0.4725869596004486
aF1.1803512573242188
aa(lp1063
F0.6985315680503845
aF1.1793067455291748
aa(lp1064
F0.8802437782287598
aF1.1739848852157593
aa(lp1065
F0.6500470042228699
aF1.1740108728408813
aa(lp1066
F0.6438577771186829
aF1.1814372539520264
aa(lp1067
F0.44043949246406555
aF1.1851524114608765
aa(lp1068
F0.5513458251953125
aF1.1971395015716553
aa(lp1069
F0.6646957397460938
aF1.2065553665161133
aa(lp1070
F0.4191116690635681
aF1.2085380554199219
aa(lp1071
F0.5818115472793579
aF1.2148529291152954
aa(lp1072
F0.6177477240562439
aF1.2160753011703491
aa(lp1073
F0.6990432143211365
aF1.202247977256775
aa(lp1074
F0.7970083355903625
aF1.2022062540054321
aa(lp1075
F0.8802592158317566
aF1.1955795288085938
aa(lp1076
F0.7243900299072266
aF1.189529538154602
aa(lp1077
F0.431869775056839
aF1.17855703830719
aa(lp1078
F0.6985917687416077
aF1.1741799116134644
aa(lp1079
F0.8560305237770081
aF1.1800882816314697
aa(lp1080
F0.7663384675979614
aF1.1770024299621582
aa(lp1081
F0.8251587152481079
aF1.1847224235534668
aa(lp1082
F0.8165286779403687
aF1.185894250869751
aa(lp1083
F0.8411821722984314
aF1.1843838691711426
aa(lp1084
F0.5125311017036438
aF1.1826369762420654
aa(lp1085
F0.655608057975769
aF1.1745901107788086
aa(lp1086
F0.4320473372936249
aF1.1687896251678467
aa(lp1087
F0.5286255478858948
aF1.1584171056747437
aa(lp1088
F0.7656460404396057
aF1.1496086120605469
aa(lp1089
F0.5529294610023499
aF1.1392722129821777
aa(lp1090
F0.8247679471969604
aF1.1355876922607422
aa(lp1091
F0.9675427079200745
aF1.1456583738327026
aa(lp1092
F0.5755959749221802
aF1.1555795669555664
aa(lp1093
F1.2835875749588013
aF1.1613240242004395
aa(lp1094
F0.7042487859725952
aF1.1721396446228027
aa(lp1095
F0.5505505204200745
aF1.1798163652420044
aa(lp1096
F0.4355100691318512
aF1.1815396547317505
aa(lp1097
F1.3587262630462646
aF1.1866180896759033
aa(lp1098
F0.8768073916435242
aF1.1985937356948853
aa(lp1099
F0.7961711883544922
aF1.200859546661377
aa(lp1100
F1.0056712627410889
aF1.1991103887557983
aa(lp1101
F0.9759500622749329
aF1.191660761833191
aa(lp1102
F0.4593428373336792
aF1.1921188831329346
aa(lp1103
F0.7038818001747131
aF1.1868757009506226
aa(lp1104
F0.5294829607009888
aF1.1777194738388062
aa(lp1105
F0.7613598704338074
aF1.174264907836914
aa(lp1106
F0.7203256487846375
aF1.1753158569335938
aa(lp1107
F0.4461664855480194
aF1.1800999641418457
aa(lp1108
F1.0326611995697021
aF1.186562418937683
aa(lp1109
F0.5000498294830322
aF1.1856850385665894
aa(lp1110
F0.6620200872421265
aF1.1876163482666016
aa(lp1111
F0.7827032804489136
aF1.1909772157669067
aa(lp1112
F0.6054013967514038
aF1.1871120929718018
aa(lp1113
F0.676613986492157
aF1.1867003440856934
aa(lp1114
F0.7226066589355469
aF1.1810119152069092
aa(lp1115
F0.5076658129692078
aF1.1699045896530151
aa(lp1116
F1.000517725944519
aF1.1561875343322754
aa(lp1117
F0.6436411142349243
aF1.1591867208480835
aa(lp1118
F1.0066241025924683
aF1.1653614044189453
aa(lp1119
F0.5334435105323792
aF1.1746612787246704
aa(lp1120
F0.6923109889030457
aF1.1868988275527954
aa(lp1121
F0.8609513640403748
aF1.2076128721237183
aa(lp1122
F0.8208437561988831
aF1.2185888290405273
aa(lp1123
F0.5133644938468933
aF1.2257251739501953
aa(lp1124
F0.5745657682418823
aF1.2241621017456055
aa(lp1125
F0.6237066984176636
aF1.2260488271713257
aa(lp1126
F0.8569118976593018
aF1.226606845855713
aa(lp1127
F0.763553261756897
aF1.2270424365997314
aa(lp1128
F0.43431663513183594
aF1.214456558227539
aa(lp1129
F0.8330388069152832
aF1.2078059911727905
aa(lp1130
F0.6931236982345581
aF1.2078514099121094
aa(lp1131
F0.6024739742279053
aF1.1980161666870117
aa(lp1132
F0.8039341568946838
aF1.1993540525436401
aa(lp1133
F0.6492031812667847
aF1.1929492950439453
aa(lp1134
F0.7552695274353027
aF1.196388602256775
aa(lp1135
F0.4660680592060089
aF1.1957570314407349
aa(lp1136
F0.49494120478630066
aF1.1921827793121338
aa(lp1137
F0.6520085334777832
aF1.1945874691009521
aa(lp1138
F0.9218253493309021
aF1.2106598615646362
aa(lp1139
F0.8960500359535217
aF1.2190272808074951
aa(lp1140
F0.505642831325531
aF1.2284578084945679
aa(lp1141
F0.5380173325538635
aF1.2357584238052368
aa(lp1142
F0.6338834762573242
aF1.2442915439605713
aa(lp1143
F1.1473650932312012
aF1.2484638690948486
aa(lp1144
F0.5515865683555603
aF1.2484767436981201
aa(lp1145
F0.8672339916229248
aF1.238088846206665
aa(lp1146
F0.7237721085548401
aF1.2241971492767334
aa(lp1147
F0.8187980651855469
aF1.2037873268127441
aa(lp1148
F0.7031752467155457
aF1.1865465641021729
aa(lp1149
F0.5979609489440918
aF1.1849111318588257
aa(lp1150
F0.7718135118484497
aF1.1840465068817139
aa(lp1151
F0.5055274367332458
aF1.1905597448349
aa(lp1152
F0.8844425678253174
aF1.1947532892227173
aa(lp1153
F0.9241968393325806
aF1.2094814777374268
aa(lp1154
F1.0239049196243286
aF1.2321054935455322
aa(lp1155
F0.7820041179656982
aF1.2491779327392578
aa(lp1156
F0.6745893955230713
aF1.2559195756912231
aa(lp1157
F0.8708145022392273
aF1.2653011083602905
aa(lp1158
F0.7109371423721313
aF1.2626240253448486
aa(lp1159
F0.3913220763206482
aF1.2527756690979004
aa(lp1160
F0.7932183146476746
aF1.253387451171875
aa(lp1161
F0.6322370171546936
aF1.2431418895721436
aa(lp1162
F1.13090980052948
aF1.238206148147583
aa(lp1163
F0.8453906178474426
aF1.2377196550369263
aa(lp1164
F0.5934698581695557
aF1.241579294204712
aa(lp1165
F0.6020816564559937
aF1.240164041519165
aa(lp1166
F0.4470923840999603
aF1.2412705421447754
aa(lp1167
F0.8145393133163452
aF1.2352845668792725
aa(lp1168
F1.1584539413452148
aF1.238573431968689
aa(lp1169
F0.43286043405532837
aF1.2348930835723877
aa(lp1170
F0.7531033754348755
aF1.2337627410888672
aa(lp1171
F0.9562006592750549
aF1.2271970510482788
aa(lp1172
F0.9736970663070679
aF1.2281142473220825
aa(lp1173
F0.5856324434280396
aF1.2213444709777832
aa(lp1174
F0.7443661689758301
aF1.219213604927063
aa(lp1175
F0.951585590839386
aF1.227704644203186
aa(lp1176
F0.48933640122413635
aF1.2316069602966309
aa(lp1177
F1.137212872505188
aF1.240860104560852
aa(lp1178
F1.0293854475021362
aF1.2388813495635986
aa(lp1179
F0.5249612331390381
aF1.240034818649292
aa(lp1180
F0.9521870613098145
aF1.2449162006378174
aa(lp1181
F0.5197312831878662
aF1.2464544773101807
aa(lp1182
F0.612073540687561
aF1.246740460395813
aa(lp1183
F0.6727896928787231
aF1.2498328685760498
aa(lp1184
F0.6632230281829834
aF1.2535074949264526
aa(lp1185
F0.7630618214607239
aF1.2619041204452515
aa(lp1186
F0.6644041538238525
aF1.2608100175857544
aa(lp1187
F0.627780556678772
aF1.2579891681671143
aa(lp1188
F0.7503082752227783
aF1.2625455856323242
aa(lp1189
F0.4614340364933014
aF1.2729558944702148
aa(lp1190
F0.42342832684516907
aF1.2673269510269165
aa(lp1191
F0.33765068650245667
aF1.2608840465545654
aa(lp1192
F0.47766244411468506
aF1.2447181940078735
aa(lp1193
F1.0338468551635742
aF1.2363883256912231
aa(lp1194
F0.757269561290741
aF1.2298693656921387
aa(lp1195
F0.8813236951828003
aF1.2227847576141357
aa(lp1196
F0.849034309387207
aF1.2274242639541626
aa(lp1197
F0.9795098304748535
aF1.2328863143920898
aa(lp1198
F1.0756324529647827
aF1.2487833499908447
aa(lp1199
F0.8586522340774536
aF1.2726365327835083
aa(lp1200
F0.8435869812965393
aF1.2785589694976807
aa(lp1201
F0.8181580305099487
aF1.290656566619873
aa(lp1202
F0.8306849002838135
aF1.2915191650390625
aa(lp1203
F0.6736657023429871
aF1.2934603691101074
aa(lp1204
F1.2338660955429077
aF1.289947271347046
aa(lp1205
F0.7855527997016907
aF1.2859423160552979
aa(lp1206
F0.5611866116523743
aF1.2827285528182983
aa(lp1207
F0.945448100566864
aF1.274448037147522
aa(lp1208
F0.9123185873031616
aF1.2666656970977783
aa(lp1209
F1.0239636898040771
aF1.259883999824524
aa(lp1210
F0.6627402305603027
aF1.2501544952392578
aa(lp1211
F1.1079684495925903
aF1.2492626905441284
aa(lp1212
F0.705566942691803
aF1.2475857734680176
aa(lp1213
F0.870914101600647
aF1.246522307395935
aa(lp1214
F1.0745099782943726
aF1.2596418857574463
aa(lp1215
F1.0664277076721191
aF1.2636051177978516
aa(lp1216
F0.557199239730835
aF1.282973051071167
aa(lp1217
F0.4656590521335602
aF1.2887500524520874
aa(lp1218
F0.8193661570549011
aF1.2972986698150635
aa(lp1219
F0.7237738966941833
aF1.286097764968872
aa(lp1220
F0.8199799656867981
aF1.2908351421356201
aa(lp1221
F0.9550621509552002
aF1.292655110359192
aa(lp1222
F0.790159285068512
aF1.2890753746032715
aa(lp1223
F0.7799370884895325
aF1.2753310203552246
aa(lp1224
F0.5834864377975464
aF1.2679743766784668
aa(lp1225
F1.1646506786346436
aF1.2477030754089355
aa(lp1226
F0.9695021510124207
aF1.234163761138916
aa(lp1227
F1.0180431604385376
aF1.233014464378357
aa(lp1228
F0.42715010046958923
aF1.233277678489685
aa(lp1229
F0.696484386920929
aF1.2403031587600708
aa(lp1230
F0.8680799007415771
aF1.258633017539978
aa(lp1231
F0.9325200319290161
aF1.2724854946136475
aa(lp1232
F1.2110551595687866
aF1.3011674880981445
aa(lp1233
F0.565714418888092
aF1.3104671239852905
aa(lp1234
F0.6720374226570129
aF1.334468126296997
aa(lp1235
F0.6960359811782837
aF1.3423576354980469
aa(lp1236
F0.7664613723754883
aF1.342087984085083
aa(lp1237
F0.7574834227561951
aF1.3413970470428467
aa(lp1238
F0.7810415029525757
aF1.3263542652130127
aa(lp1239
F0.7067891955375671
aF1.299098014831543
aa(lp1240
F0.8380600810050964
aF1.273787498474121
aa(lp1241
F0.743321418762207
aF1.2648534774780273
aa(lp1242
F0.9443665742874146
aF1.2548798322677612
aa(lp1243
F1.0613369941711426
aF1.2504727840423584
aa(lp1244
F0.8330976963043213
aF1.2457503080368042
aa(lp1245
F0.7992944121360779
aF1.2488478422164917
aa(lp1246
F0.49101507663726807
aF1.256925344467163
aa(lp1247
F0.5511408448219299
aF1.2695866823196411
aa(lp1248
F0.8841900825500488
aF1.287211537361145
aa(lp1249
F0.9603196978569031
aF1.3026962280273438
aa(lp1250
F0.7845540642738342
aF1.31709623336792
aa(lp1251
F0.9031419157981873
aF1.3333626985549927
aa(lp1252
F0.9384583234786987
aF1.3589304685592651
aa(lp1253
F0.5157281160354614
aF1.3568191528320312
aa(lp1254
F1.1406718492507935
aF1.3578521013259888
aa(lp1255
F0.7389166951179504
aF1.3466957807540894
aa(lp1256
F0.7279752492904663
aF1.3354870080947876
aa(lp1257
F0.693254828453064
aF1.318009853363037
aa(lp1258
F0.48026666045188904
aF1.303645372390747
aa(lp1259
F0.6939197182655334
aF1.289687991142273
aa(lp1260
F0.6363280415534973
aF1.2717559337615967
aa(lp1261
F0.9777607917785645
aF1.2623772621154785
aa(lp1262
F0.7294583916664124
aF1.2511224746704102
aa(lp1263
F0.7856071591377258
aF1.2499947547912598
aa(lp1264
F1.1271734237670898
aF1.251222848892212
aa(lp1265
F0.5680326223373413
aF1.2670402526855469
aa(lp1266
F0.7867225408554077
aF1.2881782054901123
aa(lp1267
F0.626673698425293
aF1.3138333559036255
aa(lp1268
F0.7200781106948853
aF1.3435777425765991
aa(lp1269
F0.8715507984161377
aF1.374579906463623
aa(lp1270
F0.9455718994140625
aF1.396360158920288
aa(lp1271
F0.49141618609428406
aF1.4036078453063965
aa(lp1272
F0.9814523458480835
aF1.3911011219024658
aa(lp1273
F0.9367786049842834
aF1.3655434846878052
aa(lp1274
F0.976010799407959
aF1.3480381965637207
aa(lp1275
F0.7023111581802368
aF1.331043004989624
aa(lp1276
F0.7224834561347961
aF1.3174105882644653
aa(lp1277
F1.0940312147140503
aF1.3008383512496948
aa(lp1278
F0.8181758522987366
aF1.2872053384780884
aa(lp1279
F0.5295172929763794
aF1.2799826860427856
aa(lp1280
F0.8876261115074158
aF1.2770622968673706
aa(lp1281
F0.7450311183929443
aF1.271037220954895
aa(lp1282
F1.110060214996338
aF1.278240442276001
aa(lp1283
F0.4751015305519104
aF1.2861711978912354
aa(lp1284
F0.7736390829086304
aF1.2994589805603027
aa(lp1285
F0.957227885723114
aF1.3272624015808105
aa(lp1286
F0.6487473249435425
aF1.3488023281097412
aa(lp1287
F0.9472947716712952
aF1.3723762035369873
aa(lp1288
F0.6523348093032837
aF1.3834753036499023
aa(lp1289
F0.8667587637901306
aF1.3938080072402954
aa(lp1290
F0.9366414546966553
aF1.3947821855545044
aa(lp1291
F0.9576544761657715
aF1.3897104263305664
aa(lp1292
F1.0440608263015747
aF1.3885279893875122
aa(lp1293
F0.9687262177467346
aF1.3832765817642212
aa(lp1294
F0.7093600630760193
aF1.3648790121078491
aa(lp1295
F0.7695913910865784
aF1.345820426940918
aa(lp1296
F0.9134459495544434
aF1.3374524116516113
aa(lp1297
F0.6767915487289429
aF1.3235177993774414
aa(lp1298
F1.0908026695251465
aF1.3242597579956055
aa(lp1299
F1.207192063331604
aF1.323891043663025
aa(lp1300
F0.4767833948135376
aF1.317978024482727
aa(lp1301
F0.8907021284103394
aF1.3293216228485107
aa(lp1302
F0.4731447100639343
aF1.3284682035446167
aa(lp1303
F0.5121781229972839
aF1.3327834606170654
aa(lp1304
F0.6220281720161438
aF1.3334174156188965
aa(lp1305
F0.9194818139076233
aF1.3358347415924072
aa(lp1306
F0.863787055015564
aF1.3337342739105225
aa(lp1307
F0.728426456451416
aF1.338387131690979
aa(lp1308
F0.9977186918258667
aF1.3360364437103271
aa(lp1309
F0.9514705538749695
aF1.3466100692749023
aa(lp1310
F0.705450177192688
aF1.3482822179794312
aa(lp1311
F0.9997361302375793
aF1.3583742380142212
aa(lp1312
F0.5869950652122498
aF1.3616870641708374
aa(lp1313
F1.1517727375030518
aF1.3644479513168335
aa(lp1314
F1.1679326295852661
aF1.3682353496551514
aa(lp1315
F0.8305344581604004
aF1.3670458793640137
aa(lp1316
F1.1074074506759644
aF1.3763461112976074
aa(lp1317
F0.8043741583824158
aF1.3722606897354126
aa(lp1318
F1.3807181119918823
aF1.379091739654541
aa(lp1319
F0.9679552912712097
aF1.3802483081817627
aa(lp1320
F0.5493313074111938
aF1.385967493057251
aa(lp1321
F0.6722792983055115
aF1.3998847007751465
aa(lp1322
F0.7330069541931152
aF1.4078714847564697
aa(lp1323
F0.6346991062164307
aF1.4118810892105103
aa(lp1324
F0.8067293763160706
aF1.3947670459747314
aa(lp1325
F0.8050777912139893
aF1.3813018798828125
aa(lp1326
F0.9038988351821899
aF1.3751859664916992
aa(lp1327
F0.6173335313796997
aF1.3615790605545044
aa(lp1328
F0.9102094769477844
aF1.351485252380371
aa(lp1329
F0.6920831203460693
aF1.344543218612671
aa(lp1330
F0.8902766704559326
aF1.331085205078125
aa(lp1331
F0.9982544183731079
aF1.323452115058899
aa(lp1332
F0.8103978633880615
aF1.3201911449432373
aa(lp1333
F1.1732653379440308
aF1.326074242591858
aa(lp1334
F0.5325515270233154
aF1.330007791519165
aa(lp1335
F0.850112795829773
aF1.3386168479919434
aa(lp1336
F1.060199499130249
aF1.3569072484970093
aa(lp1337
F0.6769669055938721
aF1.3714687824249268
aa(lp1338
F0.9212886095046997
aF1.3720033168792725
aa(lp1339
F0.9327579140663147
aF1.3952407836914062
aa(lp1340
F1.1297894716262817
aF1.4097011089324951
aa(lp1341
F0.7175062894821167
aF1.4085556268692017
aa(lp1342
F0.3668217658996582
aF1.3992600440979004
aa(lp1343
F0.8800360560417175
aF1.3973445892333984
aa(lp1344
F1.327867031097412
aF1.4018436670303345
aa(lp1345
F0.6523911952972412
aF1.3844645023345947
aa(lp1346
F1.0311846733093262
aF1.3748925924301147
aa(lp1347
F0.7705212831497192
aF1.3568024635314941
aa(lp1348
F0.944375216960907
aF1.3447810411453247
aa(lp1349
F1.0333462953567505
aF1.3433172702789307
aa(lp1350
F0.6219689846038818
aF1.3403375148773193
aa(lp1351
F1.4209309816360474
aF1.3359137773513794
aa(lp1352
F0.9309298992156982
aF1.3448916673660278
aa(lp1353
F1.593404769897461
aF1.359397530555725
aa(lp1354
F0.9633160829544067
aF1.3790029287338257
aa(lp1355
F1.4178849458694458
aF1.3997855186462402
aa(lp1356
F0.9304733872413635
aF1.4201371669769287
aa(lp1357
F0.9300001859664917
aF1.440606951713562
aa(lp1358
F1.081227421760559
aF1.4490647315979004
aa(lp1359
F0.5081689357757568
aF1.4534728527069092
aa(lp1360
F0.979123055934906
aF1.4323351383209229
aa(lp1361
F1.1501126289367676
aF1.4400274753570557
aa(lp1362
F0.6260443329811096
aF1.4471603631973267
aa(lp1363
F0.7966102361679077
aF1.4377620220184326
aa(lp1364
F0.8072779178619385
aF1.4176785945892334
aa(lp1365
F0.8440732955932617
aF1.4097317457199097
aa(lp1366
F0.7079899311065674
aF1.3977586030960083
aa(lp1367
F0.7910677194595337
aF1.3909138441085815
aa(lp1368
F0.7066255211830139
aF1.3803744316101074
aa(lp1369
F0.7910107970237732
aF1.3729497194290161
aa(lp1370
F0.9263129830360413
aF1.3635778427124023
aa(lp1371
F1.0988157987594604
aF1.3755782842636108
aa(lp1372
F0.8836256265640259
aF1.375620722770691
aa(lp1373
F0.9540661573410034
aF1.381795883178711
aa(lp1374
F0.477612167596817
aF1.3871994018554688
aa(lp1375
F0.876203179359436
aF1.3873238563537598
aa(lp1376
F0.8706741333007812
aF1.389404535293579
aa(lp1377
F0.8447127938270569
aF1.3860719203948975
aa(lp1378
F0.458442747592926
aF1.3713980913162231
aa(lp1379
F0.6335397958755493
aF1.3567472696304321
aa(lp1380
F0.8769655227661133
aF1.346021294593811
aa(lp1381
F0.8209939002990723
aF1.3403286933898926
aa(lp1382
F0.6932081580162048
aF1.3434133529663086
aa(lp1383
F1.121766209602356
aF1.3542382717132568
aa(lp1384
F0.9325175285339355
aF1.376673698425293
aa(lp1385
F0.8910282850265503
aF1.4036762714385986
aa(lp1386
F0.8652534484863281
aF1.4294382333755493
aa(lp1387
F0.7482423186302185
aF1.4547027349472046
aa(lp1388
F1.2361401319503784
aF1.5002624988555908
aa(lp1389
F0.9693160057067871
aF1.5076829195022583
aa(lp1390
F0.9569849371910095
aF1.510794997215271
aa(lp1391
F0.8667176961898804
aF1.5033109188079834
aa(lp1392
F0.5352802276611328
aF1.4648988246917725
aa(lp1393
F0.6044054627418518
aF1.4225913286209106
aa(lp1394
F0.4471204876899719
aF1.3863821029663086
aa(lp1395
F0.9929230213165283
aF1.3507919311523438
aa(lp1396
F0.8121307492256165
aF1.330716848373413
aa(lp1397
F0.7309560179710388
aF1.3236582279205322
aa(lp1398
F0.7936496138572693
aF1.3312212228775024
aa(lp1399
F0.9134083390235901
aF1.3517951965332031
aa(lp1400
F1.4017231464385986
aF1.3831002712249756
aa(lp1401
F1.3384416103363037
aF1.4215710163116455
aa(lp1402
F0.9531869292259216
aF1.446937084197998
aa(lp1403
F0.7139575481414795
aF1.469517707824707
aa(lp1404
F0.8359331488609314
aF1.4814475774765015
aa(lp1405
F0.8937796354293823
aF1.477506160736084
aa(lp1406
F0.9365109801292419
aF1.4789735078811646
aa(lp1407
F1.271451711654663
aF1.4694478511810303
aa(lp1408
F0.6826366186141968
aF1.4623559713363647
aa(lp1409
F0.5008048415184021
aF1.442589521408081
aa(lp1410
F0.9305621981620789
aF1.4434469938278198
aa(lp1411
F0.9448536038398743
aF1.4300787448883057
aa(lp1412
F0.7107189297676086
aF1.4158694744110107
aa(lp1413
F0.830601692199707
aF1.3993799686431885
aa(lp1414
F0.7111087441444397
aF1.3850294351577759
aa(lp1415
F0.9958308339118958
aF1.370199203491211
aa(lp1416
F0.6491485834121704
aF1.3578314781188965
aa(lp1417
F0.8121449947357178
aF1.346022367477417
aa(lp1418
F1.015320062637329
aF1.3451858758926392
aa(lp1419
F0.8813705444335938
aF1.3489537239074707
aa(lp1420
F0.8777731657028198
aF1.3621076345443726
aa(lp1421
F0.8256798982620239
aF1.3720945119857788
aa(lp1422
F0.41992464661598206
aF1.390394926071167
aa(lp1423
F0.5369433164596558
aF1.4066965579986572
aa(lp1424
F0.8221029043197632
aF1.4174504280090332
aa(lp1425
F1.0422759056091309
aF1.4277883768081665
aa(lp1426
F0.8954015970230103
aF1.4453984498977661
aa(lp1427
F0.7483062744140625
aF1.4679327011108398
aa(lp1428
F1.0499839782714844
aF1.4794964790344238
aa(lp1429
F0.9636508226394653
aF1.498056173324585
aa(lp1430
F0.7580437064170837
aF1.500056505203247
aa(lp1431
F0.8165102005004883
aF1.5004165172576904
aa(lp1432
F0.8679995536804199
aF1.504096269607544
aa(lp1433
F1.1713699102401733
aF1.4958536624908447
aa(lp1434
F0.6580311059951782
aF1.4824024438858032
aa(lp1435
F0.6557691693305969
aF1.4775381088256836
aa(lp1436
F0.6561748385429382
aF1.4551454782485962
aa(lp1437
F0.9457554221153259
aF1.4359487295150757
aa(lp1438
F0.7233016490936279
aF1.4225068092346191
aa(lp1439
F1.0393108129501343
aF1.4016904830932617
aa(lp1440
F0.7097880244255066
aF1.3971490859985352
aa(lp1441
F0.4659118950366974
aF1.395964503288269
aa(lp1442
F0.889549970626831
aF1.4076292514801025
aa(lp1443
F0.7435290217399597
aF1.433485746383667
aa(lp1444
F1.2045338153839111
aF1.45668363571167
aa(lp1445
F1.2487568855285645
aF1.4960811138153076
aa(lp1446
F0.8435576558113098
aF1.5232990980148315
aa(lp1447
F0.9975398778915405
aF1.5493707656860352
aa(lp1448
F1.0770642757415771
aF1.5610325336456299
aa(lp1449
F1.2464237213134766
aF1.5621927976608276
aa(lp1450
F0.6543629765510559
aF1.5415074825286865
aa(lp1451
F1.4787458181381226
aF1.5291439294815063
aa(lp1452
F0.7308805584907532
aF1.5054776668548584
aa(lp1453
F0.8911468386650085
aF1.489080548286438
aa(lp1454
F0.9814952611923218
aF1.4703669548034668
aa(lp1455
F0.8835007548332214
aF1.4550867080688477
aa(lp1456
F0.9559423327445984
aF1.4443583488464355
aa(lp1457
F0.8386308550834656
aF1.4260857105255127
aa(lp1458
F0.7937590479850769
aF1.4236857891082764
aa(lp1459
F0.7720355987548828
aF1.424008846282959
aa(lp1460
F1.12550687789917
aF1.421653151512146
aa(lp1461
F1.245268702507019
aF1.4279048442840576
aa(lp1462
F0.9324736595153809
aF1.4369333982467651
aa(lp1463
F0.8489594459533691
aF1.4573551416397095
aa(lp1464
F0.5809541940689087
aF1.464991569519043
aa(lp1465
F0.8359792232513428
aF1.4800509214401245
aa(lp1466
F0.803331732749939
aF1.493040680885315
aa(lp1467
F0.9381287693977356
aF1.5053658485412598
aa(lp1468
F0.8634575009346008
aF1.5158743858337402
aa(lp1469
F0.6705540418624878
aF1.5183486938476562
aa(lp1470
F0.8255037665367126
aF1.5194562673568726
aa(lp1471
F0.9935520887374878
aF1.5080840587615967
aa(lp1472
F0.8515152931213379
aF1.4836361408233643
aa(lp1473
F0.8721460700035095
aF1.460754156112671
aa(lp1474
F0.7552452087402344
aF1.442500114440918
aa(lp1475
F0.8991232514381409
aF1.4216927289962769
aa(lp1476
F0.6718951463699341
aF1.4081801176071167
aa(lp1477
F0.927381157875061
aF1.3973469734191895
aa(lp1478
F0.8791821599006653
aF1.3993333578109741
aa(lp1479
F0.8752901554107666
aF1.4162039756774902
aa(lp1480
F1.0046193599700928
aF1.4334598779678345
aa(lp1481
F1.0334384441375732
aF1.449927806854248
aa(lp1482
F0.899368166923523
aF1.469998836517334
aa(lp1483
F0.7433370351791382
aF1.489707112312317
aa(lp1484
F1.2002729177474976
aF1.5089625120162964
aa(lp1485
F1.2726682424545288
aF1.540354609489441
aa(lp1486
F1.1479436159133911
aF1.5682955980300903
aa(lp1487
F1.4283902645111084
aF1.5890069007873535
aa(lp1488
F0.5723752379417419
aF1.5818989276885986
aa(lp1489
F1.1072746515274048
aF1.5891592502593994
aa(lp1490
F1.059823989868164
aF1.5680567026138306
aa(lp1491
F1.6068559885025024
aF1.5635266304016113
aa(lp1492
F0.6537906527519226
aF1.536276936531067
aa(lp1493
F1.074299693107605
aF1.4989697933197021
aa(lp1494
F0.8533291816711426
aF1.473028302192688
aa(lp1495
F1.168022632598877
aF1.4496487379074097
aa(lp1496
F0.8975816369056702
aF1.4315030574798584
aa(lp1497
F0.5874446630477905
aF1.4276717901229858
aa(lp1498
F0.7425897717475891
aF1.4218056201934814
aa(lp1499
F0.9015017151832581
aF1.4256179332733154
aa(lp1500
F0.7221114635467529
aF1.4351142644882202
aa(lp1501
F0.9489063024520874
aF1.442695140838623
aa(lp1502
F1.160260558128357
aF1.4568431377410889
aa(lp1503
F1.488126516342163
aF1.4772826433181763
aa(lp1504
F1.2484800815582275
aF1.5029491186141968
aa(lp1505
F0.8576998114585876
aF1.5287703275680542
aa(lp1506
F1.0027538537979126
aF1.5564110279083252
aa(lp1507
F1.0184751749038696
aF1.570637822151184
aa(lp1508
F0.8639741539955139
aF1.5817621946334839
aa(lp1509
F0.7236160635948181
aF1.5913532972335815
aa(lp1510
F1.1511940956115723
aF1.600325345993042
aa(lp1511
F1.1369872093200684
aF1.6072529554367065
aa(lp1512
F0.9334080219268799
aF1.5936706066131592
aa(lp1513
F1.3553119897842407
aF1.578238844871521
aa(lp1514
F0.6614620685577393
aF1.5458229780197144
aa(lp1515
F0.5663604736328125
aF1.5202629566192627
aa(lp1516
F1.0365350246429443
aF1.492272973060608
aa(lp1517
F0.69532710313797
aF1.4840720891952515
aa(lp1518
F0.8652899265289307
aF1.4727740287780762
aa(lp1519
F1.084259033203125
aF1.4784451723098755
aa(lp1520
F1.1427665948867798
aF1.4825448989868164
aa(lp1521
F1.3170937299728394
aF1.4881635904312134
aa(lp1522
F0.600042998790741
aF1.489819049835205
aa(lp1523
F0.695720374584198
aF1.497969627380371
aa(lp1524
F0.880148708820343
aF1.496612548828125
aa(lp1525
F0.9854379296302795
aF1.4993494749069214
aa(lp1526
F1.106468677520752
aF1.4984318017959595
aa(lp1527
F0.7308092713356018
aF1.502960443496704
aa(lp1528
F0.9353915452957153
aF1.5018577575683594
aa(lp1529
F0.735116720199585
aF1.5021100044250488
aa(lp1530
F0.7760525941848755
aF1.5047974586486816
aa(lp1531
F0.8305923938751221
aF1.5028235912322998
aa(lp1532
F1.1777561902999878
aF1.5121862888336182
aa(lp1533
F0.8718764185905457
aF1.5180853605270386
aa(lp1534
F1.1941652297973633
aF1.5327036380767822
aa(lp1535
F1.1909971237182617
aF1.5473860502243042
aa(lp1536
F1.3562195301055908
aF1.5606619119644165
aa(lp1537
F1.216888666152954
aF1.5575993061065674
aa(lp1538
F0.8823109865188599
aF1.5560557842254639
aa(lp1539
F0.7262603640556335
aF1.561001181602478
aa(lp1540
F1.2502540349960327
aF1.5728058815002441
aa(lp1541
F0.47670435905456543
aF1.5678966045379639
aa(lp1542
F1.017994999885559
aF1.5694278478622437
aa(lp1543
F1.3607326745986938
aF1.5700035095214844
aa(lp1544
F1.0508205890655518
aF1.5683653354644775
aa(lp1545
F0.941739559173584
aF1.5664526224136353
aa(lp1546
F0.8751788139343262
aF1.5686635971069336
aa(lp1547
F1.173941731452942
aF1.566960334777832
aa(lp1548
F0.9911028742790222
aF1.5566346645355225
aa(lp1549
F1.2361595630645752
aF1.5378026962280273
aa(lp1550
F0.8163385391235352
aF1.5172580480575562
aa(lp1551
F1.0034586191177368
aF1.5001623630523682
aa(lp1552
F0.8104557394981384
aF1.49251127243042
aa(lp1553
F0.8234204649925232
aF1.4853640794754028
aa(lp1554
F1.1744332313537598
aF1.4901808500289917
aa(lp1555
F0.8865489363670349
aF1.492669939994812
aa(lp1556
F0.9870756268501282
aF1.5145915746688843
aa(lp1557
F1.2217038869857788
aF1.537165641784668
aa(lp1558
F0.7344798445701599
aF1.5514147281646729
aa(lp1559
F0.8906106948852539
aF1.5645859241485596
aa(lp1560
F0.9586039781570435
aF1.5776190757751465
aa(lp1561
F1.3029954433441162
aF1.6032218933105469
aa(lp1562
F0.5228712558746338
aF1.6163322925567627
aa(lp1563
F0.9587723016738892
aF1.6149331331253052
aa(lp1564
F1.1877779960632324
aF1.619325876235962
aa(lp1565
F0.9824881553649902
aF1.6088186502456665
aa(lp1566
F0.7193358540534973
aF1.610483169555664
aa(lp1567
F0.9890830516815186
aF1.6016260385513306
aa(lp1568
F0.9973508715629578
aF1.5944374799728394
aa(lp1569
F0.6667889952659607
aF1.5835814476013184
aa(lp1570
F1.1349563598632812
aF1.5663560628890991
aa(lp1571
F1.6678271293640137
aF1.5658873319625854
aa(lp1572
F0.6941763162612915
aF1.5648242235183716
aa(lp1573
F0.9037376642227173
aF1.577913522720337
aa(lp1574
F0.8282906413078308
aF1.5897693634033203
aa(lp1575
F1.6083190441131592
aF1.6119933128356934
aa(lp1576
F0.8368541598320007
aF1.6309045553207397
aa(lp1577
F0.6857419610023499
aF1.630800485610962
aa(lp1578
F0.6198364496231079
aF1.631759524345398
aa(lp1579
F0.621347188949585
aF1.626939296722412
aa(lp1580
F0.797742486000061
aF1.611058235168457
aa(lp1581
F1.0924795866012573
aF1.5883541107177734
aa(lp1582
F1.0690627098083496
aF1.5759596824645996
aa(lp1583
F1.2566924095153809
aF1.5641381740570068
aa(lp1584
F1.1134134531021118
aF1.5458087921142578
aa(lp1585
F1.080749273300171
aF1.541676640510559
aa(lp1586
F1.1265382766723633
aF1.5339361429214478
aa(lp1587
F0.6681383848190308
aF1.5344607830047607
aa(lp1588
F1.0809059143066406
aF1.5354485511779785
aa(lp1589
F1.1786327362060547
aF1.5494588613510132
aa(lp1590
F0.5061157941818237
aF1.559930443763733
aa(lp1591
F0.9199436902999878
aF1.5751192569732666
aa(lp1592
F0.8139885067939758
aF1.5929471254348755
aa(lp1593
F0.866904616355896
aF1.6149725914001465
aa(lp1594
F0.9555870890617371
aF1.6373786926269531
aa(lp1595
F0.7907732129096985
aF1.6544530391693115
aa(lp1596
F0.8276394605636597
aF1.675652265548706
aa(lp1597
F0.641903281211853
aF1.6808561086654663
aa(lp1598
F1.3716005086898804
aF1.7084310054779053
aa(lp1599
F0.6330887079238892
aF1.6988575458526611
aa(lp1600
F1.0861880779266357
aF1.685592532157898
aa(lp1601
F0.8893513679504395
aF1.6677255630493164
aa(lp1602
F0.5780030488967896
aF1.6371148824691772
aa(lp1603
F0.77261883020401
aF1.6163538694381714
aa(lp1604
F0.7023439407348633
aF1.5816116333007812
aa(lp1605
F0.9488666653633118
aF1.5552866458892822
aa(lp1606
F0.9422383904457092
aF1.5408775806427002
aa(lp1607
F1.1451234817504883
aF1.538271427154541
aa(lp1608
F1.4888575077056885
aF1.5466386079788208
aa(lp1609
F1.1181496381759644
aF1.5502285957336426
aa(lp1610
F1.085030436515808
aF1.5706839561462402
aa(lp1611
F1.293457269668579
aF1.603687047958374
aa(lp1612
F0.6163222789764404
aF1.640955924987793
aa(lp1613
F0.9235759973526001
aF1.6861035823822021
aa(lp1614
F0.6701990962028503
aF1.7102785110473633
aa(lp1615
F0.6333848834037781
aF1.7115323543548584
aa(lp1616
F1.1390479803085327
aF1.6950353384017944
aa(lp1617
F0.8325242400169373
aF1.6817325353622437
aa(lp1618
F1.281777024269104
aF1.6577024459838867
aa(lp1619
F0.6735528111457825
aF1.6394987106323242
aa(lp1620
F1.2285306453704834
aF1.613795280456543
aa(lp1621
F0.7749505043029785
aF1.5829267501831055
aa(lp1622
F1.2876858711242676
aF1.5658317804336548
aa(lp1623
F0.9560385942459106
aF1.557133436203003
aa(lp1624
F1.019042730331421
aF1.5506982803344727
aa(lp1625
F1.4983007907867432
aF1.5656229257583618
aa(lp1626
F0.9229680895805359
aF1.5660597085952759
aa(lp1627
F1.7023389339447021
aF1.596413493156433
aa(lp1628
F0.9272209405899048
aF1.6212661266326904
aa(lp1629
F0.419394314289093
aF1.642574667930603
aa(lp1630
F1.0559122562408447
aF1.6767895221710205
aa(lp1631
F1.2833510637283325
aF1.7026422023773193
aa(lp1632
F1.0194275379180908
aF1.7093852758407593
aa(lp1633
F0.4653920829296112
aF1.718301773071289
aa(lp1634
F0.7278962135314941
aF1.7109227180480957
aa(lp1635
F0.6792037487030029
aF1.692719578742981
aa(lp1636
F0.9120239019393921
aF1.6667293310165405
aa(lp1637
F0.5530927777290344
aF1.6370279788970947
aa(lp1638
F0.6945825219154358
aF1.614559531211853
aa(lp1639
F0.691740870475769
aF1.5830597877502441
aa(lp1640
F0.9970079660415649
aF1.5773216485977173
aa(lp1641
F0.8559885025024414
aF1.5743197202682495
aa(lp1642
F1.5106102228164673
aF1.5883780717849731
aa(lp1643
F0.7920454740524292
aF1.6012541055679321
aa(lp1644
F1.5466773509979248
aF1.625340223312378
aa(lp1645
F0.5110951662063599
aF1.6555240154266357
aa(lp1646
F0.7634114027023315
aF1.6756728887557983
aa(lp1647
F0.8605336546897888
aF1.682114601135254
aa(lp1648
F0.8964285254478455
aF1.689843773841858
aa(lp1649
F0.45181185007095337
aF1.6721266508102417
aa(lp1650
F1.368608832359314
aF1.6723945140838623
aa(lp1651
F1.1664354801177979
aF1.6627649068832397
aa(lp1652
F0.5496611595153809
aF1.6469902992248535
aa(lp1653
F1.0334124565124512
aF1.6243090629577637
aa(lp1654
F0.6332494616508484
aF1.6053962707519531
aa(lp1655
F0.8708760142326355
aF1.5929838418960571
aa(lp1656
F0.6101167798042297
aF1.5742528438568115
aa(lp1657
F0.7117854356765747
aF1.560312032699585
aa(lp1658
F0.5411854386329651
aF1.5552301406860352
aa(lp1659
F1.3154321908950806
aF1.5613900423049927
aa(lp1660
F0.5944845080375671
aF1.5707144737243652
aa(lp1661
F0.7533606886863708
aF1.589564561843872
aa(lp1662
F0.9915705919265747
aF1.6114134788513184
aa(lp1663
F0.9936532974243164
aF1.6406868696212769
aa(lp1664
F1.3294117450714111
aF1.6735877990722656
aa(lp1665
F0.8623653054237366
aF1.7073347568511963
aa(lp1666
F1.2816438674926758
aF1.7355154752731323
aa(lp1667
F0.9500916600227356
aF1.7440956830978394
aa(lp1668
F1.1566115617752075
aF1.7561345100402832
aa(lp1669
F1.3064846992492676
aF1.7404593229293823
aa(lp1670
F1.052100419998169
aF1.730226755142212
aa(lp1671
F1.4569525718688965
aF1.7145111560821533
aa(lp1672
F0.9144982695579529
aF1.6934579610824585
aa(lp1673
F1.626382827758789
aF1.6772257089614868
aa(lp1674
F0.8530155420303345
aF1.659302830696106
aa(lp1675
F1.3211487531661987
aF1.649548053741455
aa(lp1676
F0.9244474172592163
aF1.6436089277267456
aa(lp1677
F0.8554637432098389
aF1.6400326490402222
aa(lp1678
F1.5339633226394653
aF1.6459214687347412
aa(lp1679
F1.2822529077529907
aF1.645857810974121
aa(lp1680
F0.8712379336357117
aF1.6527190208435059
aa(lp1681
F0.7336196303367615
aF1.6419703960418701
aa(lp1682
F1.12607741355896
aF1.6481642723083496
aa(lp1683
F1.0667306184768677
aF1.6482304334640503
aa(lp1684
F0.9067325592041016
aF1.6571916341781616
aa(lp1685
F0.7664607167243958
aF1.6581425666809082
aa(lp1686
F1.2371165752410889
aF1.6716554164886475
aa(lp1687
F0.6074725985527039
aF1.676980972290039
aa(lp1688
F1.2143217325210571
aF1.6810297966003418
aa(lp1689
F1.4950119256973267
aF1.689781904220581
aa(lp1690
F1.372320532798767
aF1.705583095550537
aa(lp1691
F1.3625022172927856
aF1.7291070222854614
aa(lp1692
F0.8905414938926697
aF1.7341431379318237
aa(lp1693
F0.8694785833358765
aF1.7426068782806396
aa(lp1694
F0.579364001750946
aF1.7320748567581177
aa(lp1695
F0.8012076616287231
aF1.7296113967895508
aa(lp1696
F1.3158681392669678
aF1.7174077033996582
aa(lp1697
F0.8962411880493164
aF1.69960355758667
aa(lp1698
F0.6384009122848511
aF1.690530776977539
aa(lp1699
F0.7663059234619141
aF1.6770634651184082
aa(lp1700
F0.7457190155982971
aF1.6613191366195679
aa(lp1701
F1.265832543373108
aF1.6629689931869507
aa(lp1702
F0.8569449186325073
aF1.6583136320114136
aa(lp1703
F1.1255148649215698
aF1.6589168310165405
aa(lp1704
F0.8562371730804443
aF1.6597907543182373
aa(lp1705
F1.1056239604949951
aF1.6665985584259033
aa(lp1706
F1.3472506999969482
aF1.6748384237289429
aa(lp1707
F0.9656636118888855
aF1.6871951818466187
aa(lp1708
F1.1931111812591553
aF1.6980440616607666
aa(lp1709
F0.7468245029449463
aF1.7003899812698364
aa(lp1710
F1.0657860040664673
aF1.7042527198791504
aa(lp1711
F1.5522534847259521
aF1.7009414434432983
aa(lp1712
F1.0269309282302856
aF1.697312831878662
aa(lp1713
F0.8013894557952881
aF1.6986157894134521
aa(lp1714
F0.5812333822250366
aF1.706158995628357
aa(lp1715
F0.8390906453132629
aF1.7140475511550903
aa(lp1716
F1.5206584930419922
aF1.7255024909973145
aa(lp1717
F0.8708738684654236
aF1.748176097869873
aa(lp1718
F1.233433485031128
aF1.7648379802703857
aa(lp1719
F0.9422827363014221
aF1.7800389528274536
aa(lp1720
F0.9394947290420532
aF1.7811369895935059
aa(lp1721
F0.7930059432983398
aF1.7750952243804932
aa(lp1722
F0.94231778383255
aF1.778031349182129
aa(lp1723
F0.8299946188926697
aF1.7556157112121582
aa(lp1724
F0.8999462723731995
aF1.7317010164260864
aa(lp1725
F1.1809853315353394
aF1.7138270139694214
aa(lp1726
F0.8267148733139038
aF1.703019142150879
aa(lp1727
F0.8088772296905518
aF1.6940560340881348
aa(lp1728
F1.373976469039917
aF1.7025299072265625
aa(lp1729
F0.9406896233558655
aF1.7177886962890625
aa(lp1730
F0.9352803230285645
aF1.730159044265747
aa(lp1731
F1.430138349533081
aF1.7359378337860107
aa(lp1732
F0.7623657584190369
aF1.7313288450241089
aa(lp1733
F0.9341548085212708
aF1.7359697818756104
aa(lp1734
F1.0623794794082642
aF1.7300359010696411
aa(lp1735
F1.0873998403549194
aF1.71859610080719
aa(lp1736
F0.966744601726532
aF1.7156307697296143
aa(lp1737
F0.7890726923942566
aF1.7063246965408325
aa(lp1738
F1.2695674896240234
aF1.7077808380126953
aa(lp1739
F1.0192906856536865
aF1.7087996006011963
aa(lp1740
F1.0867149829864502
aF1.712833046913147
aa(lp1741
F0.9329502582550049
aF1.7146364450454712
aa(lp1742
F0.7738422155380249
aF1.7155476808547974
aa(lp1743
F1.0525881052017212
aF1.714367151260376
aa(lp1744
F1.2508893013000488
aF1.7137266397476196
aa(lp1745
F0.8270135521888733
aF1.717481255531311
aa(lp1746
F0.9196616411209106
aF1.7407130002975464
aa(lp1747
F1.5247422456741333
aF1.7592929601669312
aa(lp1748
F1.164391040802002
aF1.7690144777297974
aa(lp1749
F0.6926610469818115
aF1.775818943977356
aa(lp1750
F0.5708437561988831
aF1.7843677997589111
aa(lp1751
F0.7636147737503052
aF1.7907447814941406
aa(lp1752
F0.7829921841621399
aF1.7825173139572144
aa(lp1753
F1.0154141187667847
aF1.7810466289520264
aa(lp1754
F0.9833188652992249
aF1.7840306758880615
aa(lp1755
F0.8775233626365662
aF1.7804787158966064
aa(lp1756
F1.434815764427185
aF1.7704919576644897
aa(lp1757
F0.9778870344161987
aF1.7580201625823975
aa(lp1758
F1.3303065299987793
aF1.7561557292938232
aa(lp1759
F0.660161018371582
aF1.731489658355713
aa(lp1760
F0.9186983108520508
aF1.714083194732666
aa(lp1761
F1.0719809532165527
aF1.7068405151367188
aa(lp1762
F1.0156915187835693
aF1.7097874879837036
aa(lp1763
F0.6154810786247253
aF1.7003473043441772
aa(lp1764
F1.0643692016601562
aF1.6969547271728516
aa(lp1765
F1.0952221155166626
aF1.6985268592834473
aa(lp1766
F0.691309928894043
aF1.703101634979248
aa(lp1767
F0.9384265542030334
aF1.712395429611206
aa(lp1768
F1.0048820972442627
aF1.7196882963180542
aa(lp1769
F1.1951308250427246
aF1.72294020652771
aa(lp1770
F0.9534966945648193
aF1.714888572692871
aa(lp1771
F0.890748143196106
aF1.7154090404510498
aa(lp1772
F0.6706080436706543
aF1.7242757081985474
aa(lp1773
F0.6583942770957947
aF1.7117681503295898
aa(lp1774
F0.9205388426780701
aF1.708093523979187
aa(lp1775
F1.6565767526626587
aF1.7201800346374512
aa(lp1776
F0.6633768081665039
aF1.7356005907058716
aa(lp1777
F1.3749470710754395
aF1.7533539533615112
aa(lp1778
F0.8072080016136169
aF1.780822515487671
aa(lp1779
F1.1914315223693848
aF1.7995163202285767
aa(lp1780
F0.7879366278648376
aF1.8037430047988892
aa(lp1781
F1.6797229051589966
aF1.8163169622421265
aa(lp1782
F1.3595609664916992
aF1.8112127780914307
aa(lp1783
F1.223649501800537
aF1.8159940242767334
aa(lp1784
F1.218553066253662
aF1.8098130226135254
aa(lp1785
F1.5212037563323975
aF1.8017574548721313
aa(lp1786
F0.8732919692993164
aF1.7986218929290771
aa(lp1787
F1.3224507570266724
aF1.7944188117980957
aa(lp1788
F1.4278862476348877
aF1.8114186525344849
aa(lp1789
F0.8916735053062439
aF1.792832851409912
aa(lp1790
F1.2550702095031738
aF1.7764497995376587
aa(lp1791
F0.5540899634361267
aF1.7572267055511475
aa(lp1792
F0.9791266918182373
aF1.7435368299484253
aa(lp1793
F0.8865349292755127
aF1.745424747467041
aa(lp1794
F1.0690926313400269
aF1.738276481628418
aa(lp1795
F1.3571879863739014
aF1.736649751663208
aa(lp1796
F0.9071342945098877
aF1.749390721321106
aa(lp1797
F0.586893618106842
aF1.764597773551941
aa(lp1798
F1.0633209943771362
aF1.7867690324783325
aa(lp1799
F1.511735200881958
aF1.8021348714828491
aa(lp1800
F0.831748902797699
aF1.8105952739715576
aa(lp1801
F1.13685941696167
aF1.8200557231903076
aa(lp1802
F1.1541255712509155
aF1.8329280614852905
aa(lp1803
F1.7106804847717285
aF1.8296328783035278
aa(lp1804
F1.5467461347579956
aF1.8274133205413818
aa(lp1805
F0.7683883309364319
aF1.8174104690551758
aa(lp1806
F1.220455527305603
aF1.8005397319793701
aa(lp1807
F0.9223862290382385
aF1.7794982194900513
aa(lp1808
F0.94455486536026
aF1.7642889022827148
aa(lp1809
F1.3896645307540894
aF1.768792748451233
aa(lp1810
F0.7933581471443176
aF1.7822819948196411
aa(lp1811
F1.7098608016967773
aF1.8014116287231445
aa(lp1812
F0.511559009552002
aF1.804263949394226
aa(lp1813
F1.2793583869934082
aF1.8194403648376465
aa(lp1814
F1.072217583656311
aF1.8259484767913818
aa(lp1815
F1.4301732778549194
aF1.8243852853775024
aa(lp1816
F0.955372154712677
aF1.8235005140304565
aa(lp1817
F1.1294283866882324
aF1.817732572555542
aa(lp1818
F1.2595453262329102
aF1.8171368837356567
aa(lp1819
F1.5715851783752441
aF1.808892846107483
aa(lp1820
F1.0645198822021484
aF1.790029764175415
aa(lp1821
F0.5587320327758789
aF1.7657783031463623
aa(lp1822
F1.1575294733047485
aF1.7559313774108887
aa(lp1823
F1.1489033699035645
aF1.766746163368225
aa(lp1824
F0.7269138097763062
aF1.7731101512908936
aa(lp1825
F0.9364684820175171
aF1.7829078435897827
aa(lp1826
F1.0615357160568237
aF1.793116807937622
aa(lp1827
F0.8733389377593994
aF1.792527675628662
aa(lp1828
F1.0299270153045654
aF1.7939685583114624
aa(lp1829
F1.2157212495803833
aF1.7989952564239502
aa(lp1830
F1.3070749044418335
aF1.8100733757019043
aa(lp1831
F1.1186901330947876
aF1.8074232339859009
aa(lp1832
F0.6636549234390259
aF1.8024020195007324
aa(lp1833
F1.3254226446151733
aF1.8013380765914917
aa(lp1834
F0.7661132216453552
aF1.8129431009292603
aa(lp1835
F0.6488840579986572
aF1.8017868995666504
aa(lp1836
F0.5032508373260498
aF1.8029429912567139
aa(lp1837
F0.9408470392227173
aF1.7972614765167236
aa(lp1838
F1.3963907957077026
aF1.8054181337356567
aa(lp1839
F0.8643064498901367
aF1.8143030405044556
aa(lp1840
F0.8899961709976196
aF1.8277130126953125
aa(lp1841
F1.0171477794647217
aF1.8376952409744263
aa(lp1842
F1.6035268306732178
aF1.8548998832702637
aa(lp1843
F0.8423066139221191
aF1.8555716276168823
aa(lp1844
F0.7594708204269409
aF1.8559664487838745
aa(lp1845
F0.6979951858520508
aF1.8582428693771362
aa(lp1846
F1.1753050088882446
aF1.8568873405456543
aa(lp1847
F0.8174766898155212
aF1.843203067779541
aa(lp1848
F1.1630879640579224
aF1.8421061038970947
aa(lp1849
F1.045884370803833
aF1.842186689376831
aa(lp1850
F0.5814651846885681
aF1.8329434394836426
aa(lp1851
F0.9620340466499329
aF1.8297510147094727
aa(lp1852
F0.9162106513977051
aF1.8259249925613403
aa(lp1853
F1.3632382154464722
aF1.8230741024017334
aa(lp1854
F1.093685269355774
aF1.8224585056304932
aa(lp1855
F1.0289652347564697
aF1.8192640542984009
aa(lp1856
F1.234929084777832
aF1.8231176137924194
aa(lp1857
F0.9324016571044922
aF1.8190934658050537
aa(lp1858
F0.9141204953193665
aF1.8159091472625732
aa(lp1859
F0.5516606569290161
aF1.8040809631347656
aa(lp1860
F1.0390598773956299
aF1.7976537942886353
aa(lp1861
F1.2809302806854248
aF1.7955536842346191
aa(lp1862
F1.041317343711853
aF1.7940199375152588
aa(lp1863
F0.9496368765830994
aF1.784684658050537
aa(lp1864
F0.990315854549408
aF1.797812819480896
aa(lp1865
F1.093858242034912
aF1.8244202136993408
aa(lp1866
F0.6424997448921204
aF1.8353244066238403
aa(lp1867
F0.8510692119598389
aF1.858774185180664
aa(lp1868
F1.2521412372589111
aF1.8669544458389282
aa(lp1869
F1.3194921016693115
aF1.877081036567688
aa(lp1870
F0.9651353359222412
aF1.866103172302246
aa(lp1871
F0.9117360711097717
aF1.8530189990997314
aa(lp1872
F0.6413480043411255
aF1.823441982269287
aa(lp1873
F1.2230470180511475
aF1.8020641803741455
aa(lp1874
F1.2133010625839233
aF1.787963628768921
aa(lp1875
F0.8024284243583679
aF1.795851707458496
aa(lp1876
F0.9102746248245239
aF1.8069676160812378
aa(lp1877
F0.6745803952217102
aF1.82387113571167
aa(lp1878
F1.4103432893753052
aF1.8519030809402466
aa(lp1879
F1.07338285446167
aF1.8698656558990479
aa(lp1880
F0.7735557556152344
aF1.874603509902954
aa(lp1881
F0.6030739545822144
aF1.8744465112686157
aa(lp1882
F1.2202590703964233
aF1.8619904518127441
aa(lp1883
F1.5555459260940552
aF1.8396306037902832
aa(lp1884
F1.2534395456314087
aF1.8236433267593384
aa(lp1885
F1.2633949518203735
aF1.814529299736023
aa(lp1886
F0.9847258925437927
aF1.8165067434310913
aa(lp1887
F0.9951632618904114
aF1.8193862438201904
aa(lp1888
F1.2675039768218994
aF1.8252424001693726
aa(lp1889
F1.182950735092163
aF1.8208320140838623
aa(lp1890
F1.0618512630462646
aF1.8261778354644775
aa(lp1891
F0.8497275114059448
aF1.8271965980529785
aa(lp1892
F0.7994757294654846
aF1.826961636543274
aa(lp1893
F0.7556906938552856
aF1.8376822471618652
aa(lp1894
F0.8046104907989502
aF1.8372316360473633
aa(lp1895
F0.9551299214363098
aF1.8530921936035156
aa(lp1896
F0.815561830997467
aF1.8567973375320435
aa(lp1897
F0.8968137502670288
aF1.8674556016921997
aa(lp1898
F1.0422282218933105
aF1.8653931617736816
aa(lp1899
F1.2529658079147339
aF1.8844261169433594
aa(lp1900
F1.0566562414169312
aF1.8893554210662842
aa(lp1901
F0.8076902031898499
aF1.9016178846359253
aa(lp1902
F0.541594386100769
aF1.8967205286026
aa(lp1903
F1.1118698120117188
aF1.884953260421753
aa(lp1904
F0.8139201402664185
aF1.8644225597381592
aa(lp1905
F1.5080467462539673
aF1.8469762802124023
aa(lp1906
F0.8337451815605164
aF1.8349143266677856
aa(lp1907
F1.1122477054595947
aF1.835646629333496
aa(lp1908
F0.5983768105506897
aF1.8332366943359375
aa(lp1909
F1.1514291763305664
aF1.8341689109802246
aa(lp1910
F1.0996710062026978
aF1.839477777481079
aa(lp1911
F0.774436354637146
aF1.8459932804107666
aa(lp1912
F1.117864966392517
aF1.8579996824264526
aa(lp1913
F1.1409306526184082
aF1.871911644935608
aa(lp1914
F0.8718935251235962
aF1.896022081375122
aa(lp1915
F1.7014504671096802
aF1.9184924364089966
aa(lp1916
F0.597872257232666
aF1.9289475679397583
aa(lp1917
F1.4404255151748657
aF1.9402297735214233
aa(lp1918
F0.8350287079811096
aF1.9348156452178955
aa(lp1919
F0.8829337358474731
aF1.9233686923980713
aa(lp1920
F0.9992339611053467
aF1.919031023979187
aa(lp1921
F1.072134017944336
aF1.920638084411621
aa(lp1922
F1.6776975393295288
aF1.9197099208831787
aa(lp1923
F1.2510591745376587
aF1.9215357303619385
aa(lp1924
F1.126950979232788
aF1.9241809844970703
aa(lp1925
F1.254812240600586
aF1.926213264465332
aa(lp1926
F1.2216683626174927
aF1.9123411178588867
aa(lp1927
F1.1272659301757812
aF1.8969647884368896
aa(lp1928
F0.9042021036148071
aF1.890053153038025
aa(lp1929
F1.1616606712341309
aF1.8917514085769653
aa(lp1930
F1.0095133781433105
aF1.9022973775863647
aa(lp1931
F1.5354844331741333
aF1.9142097234725952
aa(lp1932
F1.1315051317214966
aF1.9205774068832397
aa(lp1933
F1.3834401369094849
aF1.9254590272903442
aa(lp1934
F0.787245512008667
aF1.9271113872528076
aa(lp1935
F1.008707880973816
aF1.9349693059921265
aa(lp1936
F1.5893558263778687
aF1.9474167823791504
aa(lp1937
F0.6903823018074036
aF1.9426604509353638
aa(lp1938
F1.4140725135803223
aF1.9308819770812988
aa(lp1939
F1.2376015186309814
aF1.9164613485336304
aa(lp1940
F0.723385751247406
aF1.8970749378204346
aa(lp1941
F0.6219761967658997
aF1.871243953704834
aa(lp1942
F0.6702819466590881
aF1.8452001810073853
aa(lp1943
F1.0398085117340088
aF1.827934980392456
aa(lp1944
F1.5010260343551636
aF1.816300392150879
aa(lp1945
F1.199648380279541
aF1.8142035007476807
aa(lp1946
F1.1789470911026
aF1.8305073976516724
aa(lp1947
F1.0110266208648682
aF1.8583394289016724
aa(lp1948
F0.9268873333930969
aF1.8792742490768433
aa(lp1949
F0.5740249156951904
aF1.897873878479004
aa(lp1950
F0.8300512433052063
aF1.921291470527649
aa(lp1951
F0.697076678276062
aF1.926070213317871
aa(lp1952
F0.6940277814865112
aF1.9245959520339966
aa(lp1953
F0.9994232058525085
aF1.909384846687317
aa(lp1954
F0.8115329742431641
aF1.8854491710662842
aa(lp1955
F1.0991650819778442
aF1.8704644441604614
aa(lp1956
F1.0867999792099
aF1.8492071628570557
aa(lp1957
F0.7303546071052551
aF1.8334349393844604
aa(lp1958
F0.6311756372451782
aF1.8229200839996338
aa(lp1959
F1.1387770175933838
aF1.8233983516693115
aa(lp1960
F1.2934887409210205
aF1.829188585281372
aa(lp1961
F1.1133548021316528
aF1.8457363843917847
aa(lp1962
F1.1659586429595947
aF1.879922866821289
aa(lp1963
F1.1632567644119263
aF1.9106532335281372
aa(lp1964
F1.1930369138717651
aF1.935051441192627
aa(lp1965
F1.0437902212142944
aF1.9597324132919312
aa(lp1966
F0.5982353687286377
aF1.9646031856536865
aa(lp1967
F1.5589383840560913
aF1.959470272064209
aa(lp1968
F1.1382392644882202
aF1.934847116470337
aa(lp1969
F1.1101834774017334
aF1.9196099042892456
aa(lp1970
F0.8881516456604004
aF1.9012689590454102
aa(lp1971
F0.7469658255577087
aF1.878004550933838
aa(lp1972
F1.0308688879013062
aF1.8648072481155396
aa(lp1973
F1.075766921043396
aF1.8640720844268799
aa(lp1974
F0.8204420208930969
aF1.8630210161209106
aa(lp1975
F1.2678967714309692
aF1.8725866079330444
aa(lp1976
F1.047267198562622
aF1.8947486877441406
aa(lp1977
F1.3429455757141113
aF1.904445767402649
aa(lp1978
F0.7611917853355408
aF1.9230321645736694
aa(lp1979
F1.090819001197815
aF1.9485681056976318
aa(lp1980
F0.9136396050453186
aF1.9654531478881836
aa(lp1981
F1.1146650314331055
aF1.9960172176361084
aa(lp1982
F0.8164951801300049
aF2.002786636352539
aa(lp1983
F1.12261962890625
aF1.9860999584197998
aa(lp1984
F1.2103291749954224
aF1.975228190422058
aa(lp1985
F0.8999263644218445
aF1.950260877609253
aa(lp1986
F1.0698261260986328
aF1.9178760051727295
aa(lp1987
F0.7825592160224915
aF1.8778880834579468
aa(lp1988
F1.0684021711349487
aF1.846578598022461
aa(lp1989
F1.8779010772705078
aF1.8369531631469727
aa(lp1990
F0.4733564257621765
aF1.8273568153381348
aa(lp1991
F0.7825070023536682
aF1.8430202007293701
aa(lp1992
F0.8611712455749512
aF1.8625812530517578
aa(lp1993
F0.9936723709106445
aF1.881981611251831
aa(lp1994
F0.7690045833587646
aF1.9072219133377075
aa(lp1995
F1.3911632299423218
aF1.9337602853775024
aa(lp1996
F1.1495519876480103
aF1.9665043354034424
aa(lp1997
F0.6882235407829285
aF1.9870936870574951
aa(lp1998
F0.6805550456047058
aF2.000666379928589
aa(lp1999
F0.8356109857559204
aF1.998548150062561
aa(lp2000
F1.534083604812622
aF1.9942209720611572
aa(lp2001
F1.2992520332336426
aF1.9824482202529907
aa(lp2002
F0.8068347573280334
aF1.9621883630752563
aa(lp2003
F0.6935333013534546
aF1.9294198751449585
aa(lp2004
F1.0567892789840698
aF1.9102861881256104
aa(lp2005
F0.8907561302185059
aF1.8824126720428467
aa(lp2006
F0.985735297203064
aF1.8737331628799438
aa(lp2007
F0.9700863361358643
aF1.8781256675720215
aa(lp2008
F1.058423638343811
aF1.8930046558380127
aa(lp2009
F1.2420377731323242
aF1.914794683456421
aa(lp2010
F1.2680913209915161
aF1.9469050168991089
aa(lp2011
F1.4037957191467285
aF1.9767615795135498
aa(lp2012
F0.8028601408004761
aF2.0031251907348633
aa(lp2013
F1.1836365461349487
aF2.0342655181884766
aa(lp2014
F0.5368671417236328
aF2.059683322906494
aa(lp2015
F1.098249077796936
aF2.057821035385132
aa(lp2016
F1.0075414180755615
aF2.0423195362091064
aa(lp2017
F1.3079137802124023
aF2.0189480781555176
aa(lp2018
F1.0190821886062622
aF1.9823298454284668
aa(lp2019
F1.127611517906189
aF1.9558511972427368
aa(lp2020
F1.1794565916061401
aF1.9216785430908203
aa(lp2021
F1.234400987625122
aF1.9095079898834229
aa(lp2022
F1.164725661277771
aF1.906883716583252
aa(lp2023
F0.8875685334205627
aF1.9150683879852295
aa(lp2024
F0.7468553781509399
aF1.940638542175293
aa(lp2025
F1.1495076417922974
aF1.9686030149459839
aa(lp2026
F1.2720133066177368
aF1.9995968341827393
aa(lp2027
F0.5252519845962524
aF1.998715877532959
aa(lp2028
F0.9131723046302795
aF1.9924607276916504
aa(lp2029
F1.3517595529556274
aF1.9846633672714233
aa(lp2030
F1.1937236785888672
aF1.9691842794418335
aa(lp2031
F0.8157840371131897
aF1.9474875926971436
aa(lp2032
F0.8514389991760254
aF1.9294133186340332
aa(lp2033
F1.5627936124801636
aF1.9233735799789429
aa(lp2034
F1.0429819822311401
aF1.9295934438705444
aa(lp2035
F1.1394867897033691
aF1.934047818183899
aa(lp2036
F1.491995096206665
aF1.9497541189193726
aa(lp2037
F0.7981911897659302
aF1.9599289894104004
aa(lp2038
F1.2551997900009155
aF1.9760310649871826
aa(lp2039
F0.7148765921592712
aF1.9952462911605835
aa(lp2040
F1.3524223566055298
aF2.017390012741089
aa(lp2041
F1.1307638883590698
aF2.0303311347961426
aa(lp2042
F0.9873900413513184
aF2.0385780334472656
aa(lp2043
F1.5665584802627563
aF2.0486721992492676
aa(lp2044
F1.5385997295379639
aF2.045058012008667
aa(lp2045
F1.0081017017364502
aF2.041080951690674
aa(lp2046
F1.0868598222732544
aF2.020540952682495
aa(lp2047
F1.0128872394561768
aF1.9977564811706543
aa(lp2048
F1.1736122369766235
aF1.9798884391784668
aa(lp2049
F1.1586443185806274
aF1.9567806720733643
aa(lp2050
F1.6523882150650024
aF1.9499835968017578
aa(lp2051
F0.6049869060516357
aF1.9410498142242432
aa(lp2052
F1.2041953802108765
aF1.9417428970336914
aa(lp2053
F1.4498012065887451
aF1.9430108070373535
aa(lp2054
F1.2200523614883423
aF1.9400330781936646
aa(lp2055
F0.9687734842300415
aF1.9420119524002075
aa(lp2056
F1.233921766281128
aF1.9512137174606323
aa(lp2057
F1.1847941875457764
aF1.962917685508728
aa(lp2058
F1.3322402238845825
aF1.9872338771820068
aa(lp2059
F0.9837523102760315
aF2.0151526927948
aa(lp2060
F1.2674006223678589
aF2.041857957839966
aa(lp2061
F1.1922543048858643
aF2.050001621246338
aa(lp2062
F0.8902562260627747
aF2.0649919509887695
aa(lp2063
F0.9955806732177734
aF2.0845530033111572
aa(lp2064
F1.295725703239441
aF2.078339099884033
aa(lp2065
F1.1176329851150513
aF2.061415910720825
aa(lp2066
F0.7132448554039001
aF2.0351674556732178
aa(lp2067
F1.5832843780517578
aF2.0149526596069336
aa(lp2068
F1.6331499814987183
aF2.013277530670166
aa(lp2069
F1.6261459589004517
aF2.0117604732513428
aa(lp2070
F1.4454567432403564
aF1.9962522983551025
aa(lp2071
F0.8211209774017334
aF1.9838839769363403
aa(lp2072
F0.8842406868934631
aF1.9756680727005005
aa(lp2073
F1.158139944076538
aF1.9825873374938965
aa(lp2074
F1.1667253971099854
aF1.9966700077056885
aa(lp2075
F1.1724051237106323
aF2.019282341003418
aa(lp2076
F1.1910619735717773
aF2.0419063568115234
aa(lp2077
F0.9706419706344604
aF2.062121868133545
aa(lp2078
F1.0172905921936035
aF2.072406053543091
aa(lp2079
F1.0889467000961304
aF2.0969879627227783
aa(lp2080
F0.5793200135231018
aF2.09238600730896
aa(lp2081
F1.1121399402618408
aF2.080477476119995
aa(lp2082
F1.1446614265441895
aF2.0504255294799805
aa(lp2083
F0.9803723096847534
aF2.0144832134246826
aa(lp2084
F0.8678279519081116
aF1.9809238910675049
aa(lp2085
F0.9891341328620911
aF1.95979642868042
aa(lp2086
F1.2106655836105347
aF1.9468019008636475
aa(lp2087
F0.9647706747055054
aF1.9495234489440918
aa(lp2088
F1.2168699502944946
aF1.9661171436309814
aa(lp2089
F1.3806489706039429
aF1.993637204170227
aa(lp2090
F0.9266683459281921
aF2.0125322341918945
aa(lp2091
F1.39103364944458
aF2.02561616897583
aa(lp2092
F1.009751558303833
aF2.030658721923828
aa(lp2093
F1.2924672365188599
aF2.036445140838623
aa(lp2094
F1.0128799676895142
aF2.0365352630615234
aa(lp2095
F0.8398674130439758
aF2.0342674255371094
aa(lp2096
F0.9931488633155823
aF2.0306713581085205
aa(lp2097
F0.8643370270729065
aF2.0273265838623047
aa(lp2098
F1.2938779592514038
aF2.0372562408447266
aa(lp2099
F0.9083718657493591
aF2.0412192344665527
aa(lp2100
F0.758465588092804
aF2.0427000522613525
aa(lp2101
F1.2842557430267334
aF2.0386452674865723
aa(lp2102
F0.92093425989151
aF2.034898281097412
aa(lp2103
F1.3613091707229614
aF2.0337166786193848
aa(lp2104
F1.1103873252868652
aF2.041518211364746
aa(lp2105
F0.8544439673423767
aF2.045469045639038
aa(lp2106
F1.4688472747802734
aF2.0367939472198486
aa(lp2107
F0.697916567325592
aF2.023639440536499
aa(lp2108
F1.1522903442382812
aF2.0101399421691895
aa(lp2109
F1.0282119512557983
aF2.008713483810425
aa(lp2110
F1.2839981317520142
aF2.0152390003204346
aa(lp2111
F0.6520331501960754
aF2.0295112133026123
aa(lp2112
F1.0000786781311035
aF2.032140016555786
aa(lp2113
F0.6831456422805786
aF2.03499698638916
aa(lp2114
F0.8121923208236694
aF2.042961597442627
aa(lp2115
F1.21712327003479
aF2.048656463623047
aa(lp2116
F0.996614396572113
aF2.0742950439453125
aa(lp2117
F1.1970888376235962
aF2.09133243560791
aa(lp2118
F0.742316722869873
aF2.1142659187316895
aa(lp2119
F1.199601411819458
aF2.126026153564453
aa(lp2120
F0.8621906042098999
aF2.130826711654663
aa(lp2121
F1.1458792686462402
aF2.1372766494750977
aa(lp2122
F1.1977087259292603
aF2.1466851234436035
aa(lp2123
F1.3334150314331055
aF2.1491875648498535
aa(lp2124
F1.181523084640503
aF2.134812355041504
aa(lp2125
F0.8061440587043762
aF2.1091513633728027
aa(lp2126
F1.1041007041931152
aF2.0795834064483643
aa(lp2127
F1.215816617012024
aF2.0488028526306152
aa(lp2128
F0.9812525510787964
aF2.007535457611084
aa(lp2129
F0.8613942265510559
aF1.9690426588058472
aa(lp2130
F1.185251235961914
aF1.9564827680587769
aa(lp2131
F1.145993709564209
aF1.957390308380127
aa(lp2132
F1.0872076749801636
aF1.9731380939483643
aa(lp2133
F1.1524651050567627
aF1.9976162910461426
aa(lp2134
F1.3143078088760376
aF2.024380683898926
aa(lp2135
F0.9197174310684204
aF2.062164068222046
aa(lp2136
F1.5949578285217285
aF2.094115734100342
aa(lp2137
F1.2667118310928345
aF2.128103017807007
aa(lp2138
F1.2739145755767822
aF2.1481564044952393
aa(lp2139
F0.9921624064445496
aF2.1579360961914062
aa(lp2140
F0.8429998159408569
aF2.1626687049865723
aa(lp2141
F1.1994680166244507
aF2.159048080444336
aa(lp2142
F1.3629382848739624
aF2.137150526046753
aa(lp2143
F1.1009013652801514
aF2.0941638946533203
aa(lp2144
F1.0750765800476074
aF2.0523593425750732
aa(lp2145
F0.8229881525039673
aF2.0077590942382812
aa(lp2146
F0.8320144414901733
aF1.9693821668624878
aa(lp2147
F0.9000799655914307
aF1.9419883489608765
aa(lp2148
F1.1104336977005005
aF1.9290190935134888
aa(lp2149
F0.9724866151809692
aF1.9218343496322632
aa(lp2150
F1.1609538793563843
aF1.9262484312057495
aa(lp2151
F0.7731264233589172
aF1.9440581798553467
aa(lp2152
F0.9762684106826782
aF1.9706331491470337
aa(lp2153
F1.3924163579940796
aF2.002535581588745
aa(lp2154
F1.3974353075027466
aF2.033250570297241
aa(lp2155
F0.9897810816764832
aF2.0701193809509277
aa(lp2156
F0.6546324491500854
aF2.1043739318847656
aa(lp2157
F1.0428104400634766
aF2.12833309173584
aa(lp2158
F0.8685268759727478
aF2.1510963439941406
aa(lp2159
F1.1171290874481201
aF2.1507515907287598
aa(lp2160
F1.077681541442871
aF2.140030860900879
aa(lp2161
F1.4209325313568115
aF2.1290183067321777
aa(lp2162
F1.1066807508468628
aF2.116222381591797
aa(lp2163
F1.3505535125732422
aF2.103020191192627
aa(lp2164
F1.0955272912979126
aF2.10334849357605
aa(lp2165
F1.165122389793396
aF2.096524477005005
aa(lp2166
F1.2616639137268066
aF2.1105308532714844
aa(lp2167
F1.5007277727127075
aF2.111910581588745
aa(lp2168
F1.7135436534881592
aF2.1081271171569824
aa(lp2169
F1.4273838996887207
aF2.101094961166382
aa(lp2170
F0.9510511159896851
aF2.0966262817382812
aa(lp2171
F0.8363968133926392
aF2.088196039199829
aa(lp2172
F1.0133928060531616
aF2.0805070400238037
aa(lp2173
F1.0691773891448975
aF2.0745301246643066
aa(lp2174
F1.2138400077819824
aF2.070890188217163
aa(lp2175
F1.3827580213546753
aF2.0692083835601807
aa(lp2176
F1.0700225830078125
aF2.0699145793914795
aa(lp2177
F1.0415937900543213
aF2.080141067504883
aa(lp2178
F1.2400890588760376
aF2.0883100032806396
aa(lp2179
F0.7580023407936096
aF2.0880439281463623
aa(lp2180
F0.9786299467086792
aF2.09195613861084
aa(lp2181
F1.132947325706482
aF2.0923070907592773
aa(lp2182
F0.9490674734115601
aF2.094231367111206
aa(lp2183
F1.062633991241455
aF2.0950121879577637
aa(lp2184
F1.3787568807601929
aF2.092458486557007
aa(lp2185
F1.2956805229187012
aF2.090498447418213
aa(lp2186
F1.0116407871246338
aF2.0874571800231934
aa(lp2187
F1.0978659391403198
aF2.08901047706604
aa(lp2188
F0.836098313331604
aF2.086667537689209
aa(lp2189
F1.1553831100463867
aF2.08719539642334
aa(lp2190
F1.1899937391281128
aF2.0770466327667236
aa(lp2191
F1.5210325717926025
aF2.079315185546875
aa(lp2192
F0.8053464293479919
aF2.0765228271484375
aa(lp2193
F0.9792239665985107
aF2.0897340774536133
aa(lp2194
F1.3394975662231445
aF2.106083393096924
aa(lp2195
F0.8218536376953125
aF2.119300365447998
aa(lp2196
F1.3420084714889526
aF2.1302356719970703
aa(lp2197
F1.1015077829360962
aF2.133660316467285
aa(lp2198
F0.6458559036254883
aF2.145050525665283
aa(lp2199
F1.1349782943725586
aF2.1347405910491943
aa(lp2200
F1.2071398496627808
aF2.138446807861328
aa(lp2201
F0.9235449433326721
aF2.1350209712982178
aa(lp2202
F1.2134829759597778
aF2.131910562515259
aa(lp2203
F0.6276529431343079
aF2.1208651065826416
aa(lp2204
F0.8443897366523743
aF2.1140336990356445
aa(lp2205
F1.4337050914764404
aF2.1130294799804688
aa(lp2206
F0.7773913741111755
aF2.104996681213379
aa(lp2207
F1.218450903892517
aF2.1083340644836426
aa(lp2208
F0.963002622127533
aF2.121677875518799
aa(lp2209
F0.6854989528656006
aF2.1252055168151855
aa(lp2210
F1.6043716669082642
aF2.1369638442993164
aa(lp2211
F1.144602656364441
aF2.151902437210083
aa(lp2212
F0.8035388588905334
aF2.161346435546875
aa(lp2213
F0.7719463109970093
aF2.163099527359009
aa(lp2214
F1.0858449935913086
aF2.154456853866577
aa(lp2215
F1.2184419631958008
aF2.150277853012085
aa(lp2216
F1.614375352859497
aF2.1441638469696045
aa(lp2217
F1.1870037317276
aF2.1283724308013916
aa(lp2218
F1.1772801876068115
aF2.1174635887145996
aa(lp2219
F1.2669597864151
aF2.1082353591918945
aa(lp2220
F0.8534927368164062
aF2.1004412174224854
aa(lp2221
F1.1311461925506592
aF2.1046087741851807
aa(lp2222
F1.2979544401168823
aF2.1072165966033936
aa(lp2223
F1.4943103790283203
aF2.105241298675537
aa(lp2224
F1.1893620491027832
aF2.1167752742767334
aa(lp2225
F1.4628891944885254
aF2.139045476913452
aa(lp2226
F0.959922194480896
aF2.156759738922119
aa(lp2227
F1.0227947235107422
aF2.1624889373779297
aa(lp2228
F0.7700327038764954
aF2.1714277267456055
aa(lp2229
F1.3588632345199585
aF2.176577568054199
aa(lp2230
F1.1786940097808838
aF2.1868386268615723
aa(lp2231
F1.275078296661377
aF2.1788411140441895
aa(lp2232
F1.4674736261367798
aF2.16274094581604
aa(lp2233
F1.1825276613235474
aF2.158175230026245
aa(lp2234
F1.3959535360336304
aF2.1522650718688965
aa(lp2235
F0.9319724440574646
aF2.1446876525878906
aa(lp2236
F0.9155277013778687
aF2.1349761486053467
aa(lp2237
F0.7458582520484924
aF2.1210098266601562
aa(lp2238
F1.6620242595672607
aF2.118467092514038
aa(lp2239
F0.8638733625411987
aF2.121852397918701
aa(lp2240
F1.5287399291992188
aF2.1269071102142334
aa(lp2241
F1.2984999418258667
aF2.1359856128692627
aa(lp2242
F1.377354621887207
aF2.1556639671325684
aa(lp2243
F1.228222370147705
aF2.172264814376831
aa(lp2244
F1.3722116947174072
aF2.195993423461914
aa(lp2245
F1.2727404832839966
aF2.198029041290283
aa(lp2246
F1.0394303798675537
aF2.2177557945251465
aa(lp2247
F1.2187410593032837
aF2.229963541030884
aa(lp2248
F1.5351377725601196
aF2.2450098991394043
aa(lp2249
F1.0505406856536865
aF2.2359604835510254
aa(lp2250
F1.034502387046814
aF2.230597496032715
aa(lp2251
F0.9099907279014587
aF2.2051312923431396
aa(lp2252
F1.1321500539779663
aF2.1758077144622803
aa(lp2253
F0.7242926955223083
aF2.146115303039551
aa(lp2254
F1.2382556200027466
aF2.121230363845825
aa(lp2255
F1.1537531614303589
aF2.107705593109131
aa(lp2256
F1.3090486526489258
aF2.0986499786376953
aa(lp2257
F0.7143511176109314
aF2.1091208457946777
aa(lp2258
F1.5368319749832153
aF2.1172804832458496
aa(lp2259
F0.7858259081840515
aF2.130251407623291
aa(lp2260
F1.0410075187683105
aF2.1473231315612793
aa(lp2261
F0.7259059548377991
aF2.163137435913086
aa(lp2262
F1.6438517570495605
aF2.188170909881592
aa(lp2263
F1.1555830240249634
aF2.2064595222473145
aa(lp2264
F1.014971375465393
aF2.230731248855591
aa(lp2265
F1.052443504333496
aF2.2327237129211426
aa(lp2266
F1.2796553373336792
aF2.227565050125122
aa(lp2267
F0.984394371509552
aF2.2127063274383545
aa(lp2268
F1.3909450769424438
aF2.2014451026916504
aa(lp2269
F0.777148962020874
aF2.1773681640625
aa(lp2270
F0.939923107624054
aF2.143059730529785
aa(lp2271
F1.4671474695205688
aF2.11765456199646
aa(lp2272
F0.9569746255874634
aF2.0928730964660645
aa(lp2273
F1.4204530715942383
aF2.0865302085876465
aa(lp2274
F1.0091137886047363
aF2.0962986946105957
aa(lp2275
F1.4744958877563477
aF2.120945453643799
aa(lp2276
F0.8881706595420837
aF2.1551835536956787
aa(lp2277
F1.3429099321365356
aF2.1898012161254883
aa(lp2278
F1.5668833255767822
aF2.226357936859131
aa(lp2279
F0.9714654088020325
aF2.272413730621338
aa(lp2280
F1.2023851871490479
aF2.312643051147461
aa(lp2281
F1.062371850013733
aF2.3276352882385254
aa(lp2282
F1.19023859500885
aF2.324770927429199
aa(lp2283
F1.4434540271759033
aF2.3139231204986572
aa(lp2284
F1.180444359779358
aF2.294442892074585
aa(lp2285
F1.8213772773742676
aF2.263026475906372
aa(lp2286
F0.8115238547325134
aF2.2300102710723877
aa(lp2287
F0.7512066960334778
aF2.186066150665283
aa(lp2288
F1.0039814710617065
aF2.156348705291748
aa(lp2289
F1.0394445657730103
aF2.123863697052002
aa(lp2290
F0.9609616994857788
aF2.1133596897125244
aa(lp2291
F0.9322736859321594
aF2.1075308322906494
aa(lp2292
F1.1731005907058716
aF2.11246919631958
aa(lp2293
F0.8351460099220276
aF2.11765456199646
aa(lp2294
F1.1959164142608643
aF2.1354074478149414
aa(lp2295
F1.2612107992172241
aF2.1624038219451904
aa(lp2296
F1.1880892515182495
aF2.1879689693450928
aa(lp2297
F1.1234805583953857
aF2.197286605834961
aa(lp2298
F1.4637324810028076
aF2.206380844116211
aa(lp2299
F0.5729489922523499
aF2.2045764923095703
aa(lp2300
F0.7539466619491577
aF2.1964259147644043
aa(lp2301
F1.3825132846832275
aF2.193315267562866
aa(lp2302
F1.0768756866455078
aF2.1799254417419434
aa(lp2303
F1.149275779724121
aF2.1807026863098145
aa(lp2304
F1.3394498825073242
aF2.167278528213501
aa(lp2305
F0.8281491994857788
aF2.1585586071014404
aa(lp2306
F1.6711782217025757
aF2.151961088180542
aa(lp2307
F1.4964871406555176
aF2.151336669921875
aa(lp2308
F0.979699432849884
aF2.156252145767212
aa(lp2309
F1.1206878423690796
aF2.164686679840088
aa(lp2310
F1.9715678691864014
aF2.174274444580078
aa(lp2311
F1.332244873046875
aF2.1898677349090576
aa(lp2312
F1.2854723930358887
aF2.203892230987549
aa(lp2313
F1.014756679534912
aF2.217109203338623
aa(lp2314
F1.1668061017990112
aF2.2278919219970703
aa(lp2315
F1.031306505203247
aF2.224371910095215
aa(lp2316
F1.3059443235397339
aF2.214864492416382
aa(lp2317
F0.9929275512695312
aF2.1971993446350098
aa(lp2318
F0.8060288429260254
aF2.179086208343506
aa(lp2319
F0.720492422580719
aF2.1746814250946045
aa(lp2320
F1.603166103363037
aF2.1687393188476562
aa(lp2321
F0.6211363673210144
aF2.1582283973693848
aa(lp2322
F0.923519492149353
aF2.1555423736572266
aa(lp2323
F0.7880276441574097
aF2.1484246253967285
aa(lp2324
F0.7184083461761475
aF2.149320363998413
aa(lp2325
F1.2001516819000244
aF2.1534347534179688
aa(lp2326
F0.8256729245185852
aF2.1595299243927
aa(lp2327
F0.8106955885887146
aF2.174449920654297
aa(lp2328
F1.032271146774292
aF2.1926629543304443
aa(lp2329
F0.9735887050628662
aF2.200146436691284
aa(lp2330
F1.739798903465271
aF2.2202961444854736
aa(lp2331
F1.2423427104949951
aF2.2380733489990234
aa(lp2332
F1.0318406820297241
aF2.252305746078491
aa(lp2333
F1.1716275215148926
aF2.2550668716430664
aa(lp2334
F0.629046618938446
aF2.245161294937134
aa(lp2335
F1.2915252447128296
aF2.226757049560547
aa(lp2336
F1.139444351196289
aF2.213254451751709
aa(lp2337
F1.0489675998687744
aF2.211683750152588
aa(lp2338
F1.3521428108215332
aF2.212815284729004
aa(lp2339
F0.7742169499397278
aF2.2067041397094727
aa(lp2340
F1.331912636756897
aF2.2005157470703125
aa(lp2341
F0.8748053312301636
aF2.1973021030426025
aa(lp2342
F0.905401885509491
aF2.2086122035980225
aa(lp2343
F0.8206115961074829
aF2.222829580307007
aa(lp2344
F1.0928999185562134
aF2.237700939178467
aa(lp2345
F0.7796691656112671
aF2.2488553524017334
aa(lp2346
F0.8376424908638
aF2.254326820373535
aa(lp2347
F0.8451071381568909
aF2.253450393676758
aa(lp2348
F1.3390512466430664
aF2.249207019805908
aa(lp2349
F1.2613214254379272
aF2.244277000427246
aa(lp2350
F1.5560301542282104
aF2.249998092651367
aa(lp2351
F0.8821582794189453
aF2.251136541366577
aa(lp2352
F1.0791975259780884
aF2.240777015686035
aa(lp2353
F0.9609180092811584
aF2.238211154937744
aa(lp2354
F0.9376859664916992
aF2.2311460971832275
aa(lp2355
F1.5068424940109253
aF2.227510452270508
aa(lp2356
F1.7722609043121338
aF2.2336723804473877
aa(lp2357
F0.6852322220802307
aF2.2389075756073
aa(lp2358
F1.0897473096847534
aF2.252450942993164
aa(lp2359
F1.179524540901184
aF2.270254373550415
aa(lp2360
F0.8124076724052429
aF2.2850964069366455
aa(lp2361
F1.5116606950759888
aF2.2893118858337402
aa(lp2362
F0.8113886117935181
aF2.2921078205108643
aa(lp2363
F1.5447874069213867
aF2.30143404006958
aa(lp2364
F0.8928391337394714
aF2.305825710296631
aa(lp2365
F0.6584930419921875
aF2.297482967376709
aa(lp2366
F1.182410717010498
aF2.289757013320923
aa(lp2367
F0.8963109850883484
aF2.2657663822174072
aa(lp2368
F0.7659894227981567
aF2.2390236854553223
aa(lp2369
F1.4907770156860352
aF2.2212212085723877
aa(lp2370
F1.4542391300201416
aF2.2074201107025146
aa(lp2371
F0.9385002255439758
aF2.191039562225342
aa(lp2372
F0.7328997850418091
aF2.170515298843384
aa(lp2373
F1.0373369455337524
aF2.1548705101013184
aa(lp2374
F1.3546674251556396
aF2.153097629547119
aa(lp2375
F1.2739436626434326
aF2.1646649837493896
aa(lp2376
F1.5841495990753174
aF2.1830086708068848
aa(lp2377
F1.0821597576141357
aF2.211264133453369
aa(lp2378
F0.9000507593154907
aF2.2308881282806396
aa(lp2379
F0.4900147020816803
aF2.2352330684661865
aa(lp2380
F1.1019728183746338
aF2.239896297454834
aa(lp2381
F1.0953717231750488
aF2.2514498233795166
aa(lp2382
F0.6918653249740601
aF2.2595202922821045
aa(lp2383
F0.9945009350776672
aF2.264167547225952
aa(lp2384
F0.8761398792266846
aF2.261375904083252
aa(lp2385
F0.9572726488113403
aF2.2578673362731934
aa(lp2386
F1.1822885274887085
aF2.2550177574157715
aa(lp2387
F1.0782870054244995
aF2.244206428527832
aa(lp2388
F1.0687116384506226
aF2.2377004623413086
aa(lp2389
F1.3645024299621582
aF2.2506136894226074
aa(lp2390
F1.3247675895690918
aF2.2579503059387207
aa(lp2391
F0.9419026970863342
aF2.265911340713501
aa(lp2392
F1.1830711364746094
aF2.2692971229553223
aa(lp2393
F1.6020052433013916
aF2.2793941497802734
aa(lp2394
F1.4042682647705078
aF2.2912967205047607
aa(lp2395
F0.9738069176673889
aF2.2739298343658447
aa(lp2396
F1.4564746618270874
aF2.268979787826538
aa(lp2397
F0.7434000968933105
aF2.260694980621338
aa(lp2398
F1.3274643421173096
aF2.2504398822784424
aa(lp2399
F1.1063977479934692
aF2.248197317123413
aa(lp2400
F0.6128414869308472
aF2.2335915565490723
aa.