(lp0
(lp1
F3.0492589473724365
aF-2.3682947158813477
aI4
aI0
aa(lp2
F3.0556585788726807
aF-2.3862507343292236
aI4
aI0
aa(lp3
F0.05747874826192856
aF-2.3875889778137207
aI4
aI0
aa(lp4
F3.0484426021575928
aF-2.4020683765411377
aI4
aI0
aa(lp5
F0.058501504361629486
aF-2.404376983642578
aI4
aI0
aa(lp6
F3.0424163341522217
aF-2.421963691711426
aI4
aI0
aa(lp7
F0.06704550981521606
aF-2.420393228530884
aI4
aI0
aa(lp8
F3.034950017929077
aF-2.436110258102417
aI4
aI0
aa(lp9
F6.01356840133667
aF-2.4368298053741455
aI4
aI0
aa(lp10
F0.05986161157488823
aF-2.4525763988494873
aI4
aI0
aa.