(lp0
(lp1
F4.396137714385986
aF-0.9414291977882385
aI0
aI4
aa(lp2
F4.726411819458008
aF-0.963798999786377
aI0
aI4
aa(lp3
F7.785863399505615
aF-0.9196698665618896
aI0
aI4
aa(lp4
F3.9296951293945312
aF-0.8715911507606506
aI0
aI4
aa(lp5
F5.160226345062256
aF-0.8647052049636841
aI0
aI4
aa(lp6
F5.424472808837891
aF-0.8931765556335449
aI0
aI4
aa(lp7
F4.870013236999512
aF-0.889831006526947
aI0
aI4
aa(lp8
F4.508711814880371
aF-0.8654283881187439
aI0
aI4
aa(lp9
F3.912329912185669
aF-0.9278615713119507
aI0
aI4
aa(lp10
F10.050139427185059
aF-0.8115432858467102
aI0
aI4
aa(lp11
F100.4067153930664
aF-0.9557898640632629
aI0
aI0
aa(lp12
F4.040855884552002
aF-0.9741510152816772
aI0
aI0
aa(lp13
F5.991762161254883
aF-0.9910109043121338
aI0
aI0
aa(lp14
F4.348704814910889
aF-0.9362472295761108
aI0
aI0
aa(lp15
F4.265949249267578
aF-0.9460691213607788
aI0
aI0
aa(lp16
F138.5449981689453
aF-0.9508121013641357
aI0
aI0
aa(lp17
F100.27128601074219
aF-0.9699533581733704
aI0
aI0
aa(lp18
F4.419312000274658
aF-0.8979063034057617
aI0
aI0
aa(lp19
F3.588149309158325
aF-0.9040267467498779
aI0
aI0
aa(lp20
F6.074297904968262
aF-0.9455382227897644
aI0
aI0
aa(lp21
F4.211805820465088
aF-0.910599946975708
aI0
aI8
aa(lp22
F3.4680991172790527
aF-0.9417448043823242
aI0
aI8
aa(lp23
F140.47828674316406
aF-0.963000476360321
aI0
aI8
aa(lp24
F4.091137886047363
aF-0.9105749130249023
aI0
aI8
aa(lp25
F3.628878355026245
aF-0.9078080058097839
aI0
aI8
aa(lp26
F4.337968349456787
aF-0.9269498586654663
aI0
aI8
aa(lp27
F139.6392822265625
aF-0.8853987455368042
aI0
aI8
aa(lp28
F7.7605509757995605
aF-0.8555871248245239
aI0
aI8
aa(lp29
F4.666990756988525
aF-0.8906877636909485
aI0
aI8
aa(lp30
F6.994106769561768
aF-0.8897889852523804
aI0
aI8
aa(lp31
F5.293920993804932
aF-0.8752135038375854
aI0
aI0
aa(lp32
F4.440263271331787
aF-0.7762320637702942
aI0
aI0
aa(lp33
F3.849501371383667
aF-0.8117936849594116
aI0
aI0
aa(lp34
F5.984825611114502
aF-0.7960034608840942
aI0
aI0
aa(lp35
F3.4302802085876465
aF-0.8541310429573059
aI0
aI0
aa(lp36
F4.323506832122803
aF-0.8111798763275146
aI0
aI0
aa(lp37
F4.646275043487549
aF-0.7833676338195801
aI0
aI0
aa(lp38
F4.162315368652344
aF-0.8368761539459229
aI0
aI0
aa(lp39
F4.281030178070068
aF-0.8222902417182922
aI0
aI0
aa(lp40
F4.194812297821045
aF-0.8138184547424316
aI0
aI0
aa(lp41
F4.056048393249512
aF-0.7975541949272156
aI0
aI0
aa(lp42
F3.5010037422180176
aF-0.8027464151382446
aI0
aI0
aa(lp43
F5.10141134262085
aF-0.7761223912239075
aI0
aI0
aa(lp44
F3.379253625869751
aF-0.8029974102973938
aI0
aI0
aa(lp45
F4.111391067504883
aF-0.7992460131645203
aI0
aI0
aa(lp46
F3.5293021202087402
aF-0.7439807653427124
aI0
aI0
aa(lp47
F4.1595354080200195
aF-0.7750170826911926
aI0
aI0
aa(lp48
F3.79990553855896
aF-0.7588613629341125
aI0
aI0
aa(lp49
F2.739274501800537
aF-0.7767621874809265
aI0
aI0
aa(lp50
F139.25096130371094
aF-0.748199462890625
aI0
aI0
aa(lp51
F3.7340729236602783
aF-0.772907555103302
aI0
aI6
aa(lp52
F98.76288604736328
aF-0.7269936800003052
aI0
aI6
aa(lp53
F2.960479497909546
aF-0.7295471429824829
aI0
aI6
aa(lp54
F4.964259147644043
aF-0.7095010280609131
aI0
aI6
aa(lp55
F5.738503932952881
aF-0.7379482984542847
aI0
aI6
aa(lp56
F101.19820404052734
aF-0.6984738707542419
aI0
aI6
aa(lp57
F6.068650245666504
aF-0.7260688543319702
aI0
aI6
aa(lp58
F4.148386478424072
aF-0.7251877784729004
aI0
aI6
aa(lp59
F3.858520984649658
aF-0.7202441692352295
aI0
aI6
aa(lp60
F4.522278785705566
aF-0.6864212155342102
aI0
aI6
aa(lp61
F2.491055727005005
aF-0.7255791425704956
aI0
aI0
aa(lp62
F3.469722270965576
aF-0.67278653383255
aI0
aI0
aa(lp63
F3.180016279220581
aF-0.6903536915779114
aI0
aI0
aa(lp64
F3.6208720207214355
aF-0.6655284762382507
aI0
aI0
aa(lp65
F3.8748371601104736
aF-0.6800227165222168
aI0
aI0
aa(lp66
F3.8571271896362305
aF-0.6861535310745239
aI0
aI0
aa(lp67
F6.116443157196045
aF-0.6638745665550232
aI0
aI0
aa(lp68
F3.286409854888916
aF-0.649852991104126
aI0
aI0
aa(lp69
F4.062532901763916
aF-0.6550224423408508
aI0
aI0
aa(lp70
F4.23655366897583
aF-0.6343564987182617
aI0
aI0
aa(lp71
F3.9072844982147217
aF-0.6160222291946411
aI0
aI4
aa(lp72
F3.4382078647613525
aF-0.621196448802948
aI0
aI4
aa(lp73
F5.916196823120117
aF-0.621680736541748
aI0
aI4
aa(lp74
F4.391129970550537
aF-0.6255242824554443
aI0
aI4
aa(lp75
F3.7811827659606934
aF-0.6038630604743958
aI0
aI4
aa(lp76
F4.961672782897949
aF-0.6014029383659363
aI0
aI4
aa(lp77
F4.320993423461914
aF-0.581722617149353
aI0
aI4
aa(lp78
F3.3726677894592285
aF-0.5930991768836975
aI0
aI4
aa(lp79
F4.347180366516113
aF-0.5827034115791321
aI0
aI4
aa(lp80
F4.237156867980957
aF-0.5733000636100769
aI0
aI4
aa(lp81
F3.260132312774658
aF-0.5460596084594727
aI0
aI0
aa(lp82
F3.862421751022339
aF-0.5794625282287598
aI0
aI0
aa(lp83
F5.212155342102051
aF-0.5333613157272339
aI0
aI0
aa(lp84
F62.21967697143555
aF-0.5580504536628723
aI0
aI0
aa(lp85
F3.2667088508605957
aF-0.5627881288528442
aI0
aI0
aa(lp86
F3.783818244934082
aF-0.5564374923706055
aI0
aI0
aa(lp87
F11.043663024902344
aF-0.5307112336158752
aI0
aI0
aa(lp88
F4.705800533294678
aF-0.5436346530914307
aI0
aI0
aa(lp89
F3.888714551925659
aF-0.5209264159202576
aI0
aI0
aa(lp90
F3.4460833072662354
aF-0.5344367623329163
aI0
aI0
aa(lp91
F4.353536605834961
aF-0.5002961754798889
aI0
aI2
aa(lp92
F5.831397533416748
aF-0.4793545603752136
aI0
aI2
aa(lp93
F3.253817319869995
aF-0.48275214433670044
aI0
aI2
aa(lp94
F2.820134162902832
aF-0.49349722266197205
aI0
aI2
aa(lp95
F3.195723295211792
aF-0.4876042604446411
aI0
aI2
aa(lp96
F79.40161895751953
aF-0.5005251169204712
aI0
aI2
aa(lp97
F4.883094787597656
aF-0.48815175890922546
aI0
aI2
aa(lp98
F4.1508965492248535
aF-0.4671093821525574
aI0
aI2
aa(lp99
F3.427036762237549
aF-0.4848751127719879
aI0
aI2
aa(lp100
F5.454672336578369
aF-0.46722298860549927
aI0
aI2
aa(lp101
F3.2733330726623535
aF-0.4656604826450348
aI1
aI0
aa(lp102
F3.980708122253418
aF-0.4949015974998474
aI1
aI0
aa(lp103
F8.391682624816895
aF-0.46300646662712097
aI1
aI0
aa(lp104
F3.559211254119873
aF-0.4668649435043335
aI1
aI0
aa(lp105
F3.653934955596924
aF-0.4699053168296814
aI1
aI0
aa(lp106
F139.60940551757812
aF-0.44687095284461975
aI1
aI0
aa(lp107
F4.983749866485596
aF-0.43384671211242676
aI1
aI0
aa(lp108
F2.998150587081909
aF-0.45238423347473145
aI1
aI0
aa(lp109
F2.818755626678467
aF-0.46660393476486206
aI1
aI0
aa(lp110
F3.7926464080810547
aF-0.4257962107658386
aI1
aI0
aa(lp111
F3.4138479232788086
aF-0.43437623977661133
aI1
aI0
aa(lp112
F7.169371128082275
aF-0.4123077094554901
aI1
aI0
aa(lp113
F3.4741485118865967
aF-0.43963074684143066
aI1
aI0
aa(lp114
F3.4304239749908447
aF-0.4292081594467163
aI1
aI0
aa(lp115
F4.466401100158691
aF-0.41371163725852966
aI1
aI0
aa(lp116
F3.9154109954833984
aF-0.40452656149864197
aI1
aI0
aa(lp117
F2.75232195854187
aF-0.40811848640441895
aI1
aI0
aa(lp118
F99.20635986328125
aF-0.41849714517593384
aI1
aI0
aa(lp119
F4.951747417449951
aF-0.39326995611190796
aI1
aI0
aa(lp120
F9.043996810913086
aF-0.3999699652194977
aI1
aI0
aa(lp121
F6.391497611999512
aF-0.3973044753074646
aI0
aI0
aa(lp122
F2.9813616275787354
aF-0.38944926857948303
aI0
aI0
aa(lp123
F4.008227348327637
aF-0.399031400680542
aI0
aI0
aa(lp124
F3.0260612964630127
aF-0.387389212846756
aI0
aI0
aa(lp125
F5.261434078216553
aF-0.39663559198379517
aI0
aI0
aa(lp126
F3.6760482788085938
aF-0.37765389680862427
aI0
aI0
aa(lp127
F2.549992322921753
aF-0.3732396960258484
aI0
aI0
aa(lp128
F3.081380605697632
aF-0.37777581810951233
aI0
aI0
aa(lp129
F5.597258567810059
aF-0.3811383843421936
aI0
aI0
aa(lp130
F3.83750581741333
aF-0.3641296625137329
aI0
aI0
aa(lp131
F99.43479919433594
aF-0.3766798973083496
aI0
aI2
aa(lp132
F4.035547733306885
aF-0.3546188175678253
aI0
aI2
aa(lp133
F3.125492572784424
aF-0.35999608039855957
aI0
aI2
aa(lp134
F3.841632843017578
aF-0.347616970539093
aI0
aI2
aa(lp135
F3.734313726425171
aF-0.35958030819892883
aI0
aI2
aa(lp136
F3.6061346530914307
aF-0.35023319721221924
aI0
aI2
aa(lp137
F2.891101837158203
aF-0.35372185707092285
aI0
aI2
aa(lp138
F59.36067199707031
aF-0.3417370915412903
aI0
aI2
aa(lp139
F4.816861629486084
aF-0.33798840641975403
aI0
aI2
aa(lp140
F3.0358707904815674
aF-0.33453452587127686
aI0
aI2
aa(lp141
F3.27874755859375
aF-0.33816689252853394
aI0
aI4
aa(lp142
F63.690391540527344
aF-0.34048962593078613
aI0
aI4
aa(lp143
F6.132808208465576
aF-0.3186262547969818
aI0
aI4
aa(lp144
F3.416306495666504
aF-0.3216939866542816
aI0
aI4
aa(lp145
F3.419023036956787
aF-0.3270721137523651
aI0
aI4
aa(lp146
F5.144199848175049
aF-0.31280916929244995
aI0
aI4
aa(lp147
F5.513768196105957
aF-0.3217405676841736
aI0
aI4
aa(lp148
F3.5338945388793945
aF-0.3156009018421173
aI0
aI4
aa(lp149
F27.008501052856445
aF-0.31640857458114624
aI0
aI4
aa(lp150
F3.1106925010681152
aF-0.30423954129219055
aI0
aI4
aa(lp151
F2.9132018089294434
aF-0.3157212734222412
aI0
aI2
aa(lp152
F3.7235114574432373
aF-0.3022869825363159
aI0
aI2
aa(lp153
F4.484094619750977
aF-0.3002116084098816
aI0
aI2
aa(lp154
F3.2105140686035156
aF-0.29009753465652466
aI0
aI2
aa(lp155
F2.6997125148773193
aF-0.30025655031204224
aI0
aI2
aa(lp156
F3.3711252212524414
aF-0.2967036962509155
aI0
aI2
aa(lp157
F4.891287326812744
aF-0.2857664227485657
aI0
aI2
aa(lp158
F5.297952651977539
aF-0.2841978073120117
aI0
aI2
aa(lp159
F5.147998809814453
aF-0.27617955207824707
aI0
aI2
aa(lp160
F6.944881916046143
aF-0.27750974893569946
aI0
aI2
aa(lp161
F2.960296154022217
aF-0.2901231646537781
aI0
aI2
aa(lp162
F3.2385811805725098
aF-0.27231404185295105
aI0
aI2
aa(lp163
F3.430744171142578
aF-0.26998022198677063
aI0
aI2
aa(lp164
F3.520084857940674
aF-0.27364909648895264
aI0
aI2
aa(lp165
F3.882263422012329
aF-0.2612649202346802
aI0
aI2
aa(lp166
F100.2701187133789
aF-0.2600751519203186
aI0
aI2
aa(lp167
F6.194891929626465
aF-0.2556500732898712
aI0
aI2
aa(lp168
F43.07502365112305
aF-0.2563023865222931
aI0
aI2
aa(lp169
F5.163546562194824
aF-0.25063368678092957
aI0
aI2
aa(lp170
F4.835690021514893
aF-0.25291526317596436
aI0
aI2
aa(lp171
F3.5879383087158203
aF-0.24280712008476257
aI0
aI2
aa(lp172
F3.415748357772827
aF-0.24656938016414642
aI0
aI2
aa(lp173
F5.341737270355225
aF-0.23585636913776398
aI0
aI2
aa(lp174
F5.908255100250244
aF-0.23996716737747192
aI0
aI2
aa(lp175
F3.8149075508117676
aF-0.23708085715770721
aI0
aI2
aa(lp176
F4.003420352935791
aF-0.2336120307445526
aI0
aI2
aa(lp177
F6.123318195343018
aF-0.22913536429405212
aI0
aI2
aa(lp178
F3.497225522994995
aF-0.23327381908893585
aI0
aI2
aa(lp179
F3.3175711631774902
aF-0.23424109816551208
aI0
aI2
aa(lp180
F3.9831738471984863
aF-0.2221011519432068
aI0
aI2
aa(lp181
F3.965005874633789
aF-0.22764930129051208
aI0
aI0
aa(lp182
F3.2984213829040527
aF-0.22136148810386658
aI0
aI0
aa(lp183
F3.49639630317688
aF-0.21443073451519012
aI0
aI0
aa(lp184
F43.457305908203125
aF-0.21007852256298065
aI0
aI0
aa(lp185
F4.907526016235352
aF-0.20284143090248108
aI0
aI0
aa(lp186
F3.6972696781158447
aF-0.2069060504436493
aI0
aI0
aa(lp187
F3.434492826461792
aF-0.2060927152633667
aI0
aI0
aa(lp188
F4.726795196533203
aF-0.19737836718559265
aI0
aI0
aa(lp189
F3.730851650238037
aF-0.2034401148557663
aI0
aI0
aa(lp190
F3.7502458095550537
aF-0.19637995958328247
aI0
aI0
aa.