(lp0
(lp1
F6.164400577545166
aF-17.420333862304688
aI3
aI0
aa(lp2
F1.608886480331421
aF-17.483295440673828
aI3
aI0
aa(lp3
F6.501052379608154
aF-17.543384552001953
aI3
aI0
aa(lp4
F5.8952555656433105
aF-17.564706802368164
aI3
aI0
aa(lp5
F6.161980628967285
aF-17.555213928222656
aI3
aI0
aa(lp6
F1.2255306243896484
aF-17.564632415771484
aI3
aI0
aa(lp7
F0.9612376093864441
aF-17.584243774414062
aI3
aI0
aa(lp8
F6.165028095245361
aF-17.575042724609375
aI3
aI0
aa(lp9
F6.503203868865967
aF-17.55353355407715
aI3
aI0
aa(lp10
F6.501246929168701
aF-17.526437759399414
aI3
aI0
aa(lp11
F5.893075942993164
aF-17.488304138183594
aI3
aI0
aa(lp12
F6.500750541687012
aF-17.461517333984375
aI3
aI0
aa(lp13
F5.889315128326416
aF-17.43746566772461
aI3
aI0
aa(lp14
F6.507050037384033
aF-17.436180114746094
aI3
aI0
aa(lp15
F6.507266998291016
aF-17.45366668701172
aI3
aI0
aa(lp16
F1.5975712537765503
aF-17.505029678344727
aI3
aI0
aa(lp17
F5.280709266662598
aF-17.536510467529297
aI3
aI0
aa(lp18
F4.942265510559082
aF-17.536603927612305
aI3
aI0
aa(lp19
F6.500555038452148
aF-17.532638549804688
aI3
aI0
aa(lp20
F6.500901699066162
aF-17.526893615722656
aI3
aI0
aa(lp21
F1.5746434926986694
aF-17.544296264648438
aI3
aI0
aa(lp22
F6.501770973205566
aF-17.555736541748047
aI3
aI0
aa(lp23
F5.896047592163086
aF-17.551130294799805
aI3
aI0
aa(lp24
F1.5682421922683716
aF-17.564477920532227
aI3
aI0
aa(lp25
F1.5657918453216553
aF-17.59296989440918
aI3
aI0
aa(lp26
F6.166263103485107
aF-17.600984573364258
aI3
aI0
aa(lp27
F1.5597412586212158
aF-17.61693572998047
aI3
aI0
aa(lp28
F6.5085768699646
aF-17.616302490234375
aI3
aI0
aa(lp29
F1.558974266052246
aF-17.62277603149414
aI3
aI0
aa(lp30
F6.511194229125977
aF-17.611295700073242
aI3
aI0
aa(lp31
F5.907670497894287
aF-17.579185485839844
aI3
aI0
aa(lp32
F0.9610233902931213
aF-17.55431365966797
aI3
aI0
aa(lp33
F6.502803325653076
aF-17.524858474731445
aI3
aI0
aa(lp34
F0.9662854075431824
aF-17.512331008911133
aI3
aI0
aa(lp35
F6.501176357269287
aF-17.502422332763672
aI3
aI0
aa(lp36
F0.9711472392082214
aF-17.511253356933594
aI3
aI0
aa(lp37
F6.500455379486084
aF-17.52047348022461
aI3
aI0
aa(lp38
F6.500213146209717
aF-17.529266357421875
aI3
aI0
aa(lp39
F1.5739346742630005
aF-17.55875015258789
aI3
aI0
aa(lp40
F6.5029730796813965
aF-17.578289031982422
aI3
aI0
aa(lp41
F1.5635188817977905
aF-17.609712600708008
aI3
aI0
aa(lp42
F6.509326934814453
aF-17.621633529663086
aI3
aI0
aa(lp43
F5.31467866897583
aF-17.599647521972656
aI3
aI0
aa(lp44
F6.507167339324951
aF-17.56690216064453
aI3
aI0
aa(lp45
F5.558755874633789
aF-17.515989303588867
aI3
aI0
aa(lp46
F6.500713348388672
aF-17.47048568725586
aI3
aI0
aa(lp47
F5.88954496383667
aF-17.428085327148438
aI3
aI0
aa(lp48
F6.509150505065918
aF-17.40669822692871
aI3
aI0
aa(lp49
F6.512691020965576
aF-17.403244018554688
aI3
aI0
aa(lp50
F6.5130462646484375
aF-17.417980194091797
aI3
aI0
aa(lp51
F6.541542053222656
aF-17.44779396057129
aI4
aI0
aa(lp52
F4.066409587860107
aF-17.50978660583496
aI4
aI0
aa(lp53
F1.8427560329437256
aF-17.58465576171875
aI4
aI0
aa(lp54
F1.2572215795516968
aF-17.655454635620117
aI4
aI0
aa(lp55
F2.1615285873413086
aF-17.722549438476562
aI4
aI0
aa(lp56
F3.3908839225769043
aF-17.778732299804688
aI4
aI0
aa(lp57
F0.12917664647102356
aF-17.78736114501953
aI4
aI0
aa(lp58
F7.170497894287109
aF-17.76137351989746
aI4
aI0
aa(lp59
F6.828357696533203
aF-17.70627784729004
aI4
aI0
aa(lp60
F2.770573139190674
aF-17.64731788635254
aI4
aI0
aa(lp61
F1.2638026475906372
aF-17.587059020996094
aI4
aI0
aa(lp62
F4.004924774169922
aF-17.55201530456543
aI4
aI0
aa(lp63
F0.6547321081161499
aF-17.52196502685547
aI4
aI0
aa(lp64
F3.7286746501922607
aF-17.519412994384766
aI4
aI0
aa(lp65
F3.384967565536499
aF-17.537282943725586
aI4
aI0
aa(lp66
F1.2288419008255005
aF-17.5621280670166
aI4
aI0
aa(lp67
F8.649596214294434
aF-17.5866756439209
aI4
aI0
aa(lp68
F8.949315071105957
aF-17.60995101928711
aI4
aI0
aa(lp69
F8.313345909118652
aF-17.62352752685547
aI4
aI0
aa(lp70
F2.796912670135498
aF-17.638364791870117
aI4
aI0
aa(lp71
F2.4568796157836914
aF-17.658565521240234
aI4
aI0
aa(lp72
F6.821861267089844
aF-17.657451629638672
aI4
aI0
aa(lp73
F1.230531930923462
aF-17.64792823791504
aI4
aI0
aa(lp74
F3.957185983657837
aF-17.64963150024414
aI4
aI0
aa(lp75
F10.445023536682129
aF-17.660215377807617
aI4
aI0
aa(lp76
F3.1269924640655518
aF-17.67364501953125
aI4
aI0
aa(lp77
F5.143199443817139
aF-17.704700469970703
aI4
aI0
aa(lp78
F0.978071391582489
aF-17.715919494628906
aI4
aI0
aa(lp79
F1.5708972215652466
aF-17.715667724609375
aI4
aI0
aa(lp80
F1.015091061592102
aF-17.697500228881836
aI4
aI0
aa(lp81
F0.6788740158081055
aF-17.662376403808594
aI4
aI0
aa(lp82
F6.228172779083252
aF-17.605440139770508
aI4
aI0
aa(lp83
F2.7637240886688232
aF-17.57071876525879
aI4
aI0
aa(lp84
F1.8634079694747925
aF-17.548643112182617
aI4
aI0
aa(lp85
F3.113474130630493
aF-17.54456901550293
aI4
aI0
aa(lp86
F2.2109029293060303
aF-17.55980682373047
aI4
aI0
aa(lp87
F1.866101861000061
aF-17.586511611938477
aI4
aI0
aa(lp88
F2.4288852214813232
aF-17.62482452392578
aI4
aI0
aa(lp89
F8.91169261932373
aF-17.656726837158203
aI4
aI0
aa(lp90
F2.760260581970215
aF-17.68391227722168
aI4
aI0
aa(lp91
F3.3883190155029297
aF-17.71025848388672
aI4
aI0
aa(lp92
F2.769528388977051
aF-17.72416877746582
aI4
aI0
aa(lp93
F5.99639368057251
aF-17.700822830200195
aI4
aI0
aa(lp94
F1.2400507926940918
aF-17.665861129760742
aI4
aI0
aa(lp95
F2.762038230895996
aF-17.631336212158203
aI4
aI0
aa(lp96
F8.316170692443848
aF-17.58980941772461
aI4
aI0
aa(lp97
F2.429194688796997
aF-17.565940856933594
aI4
aI0
aa(lp98
F2.17206072807312
aF-17.558700561523438
aI4
aI0
aa(lp99
F1.56841242313385
aF-17.561006546020508
aI4
aI0
aa(lp100
F7.1431756019592285
aF-17.562877655029297
aI4
aI0
aa(lp101
F7.130758285522461
aF-17.593067169189453
aI3
aI0
aa(lp102
F4.338359832763672
aF-17.6429443359375
aI3
aI0
aa(lp103
F5.579227924346924
aF-17.701589584350586
aI3
aI0
aa(lp104
F2.7561895847320557
aF-17.755840301513672
aI3
aI0
aa(lp105
F1.2873369455337524
aF-17.783449172973633
aI3
aI0
aa(lp106
F1.0368915796279907
aF-17.7869930267334
aI3
aI0
aa(lp107
F1.0166822671890259
aF-17.762067794799805
aI3
aI0
aa(lp108
F8.951416015625
aF-17.718679428100586
aI3
aI0
aa(lp109
F6.845409393310547
aF-17.654146194458008
aI3
aI0
aa(lp110
F0.6393581032752991
aF-17.582658767700195
aI3
aI0
aa(lp111
F8.928194999694824
aF-17.516786575317383
aI3
aI0
aa(lp112
F0.36078062653541565
aF-17.458637237548828
aI3
aI0
aa(lp113
F2.8301947116851807
aF-17.42841339111328
aI3
aI0
aa(lp114
F8.177178382873535
aF-17.453737258911133
aI3
aI0
aa(lp115
F1.857386827468872
aF-17.49399185180664
aI3
aI0
aa(lp116
F3.394681453704834
aF-17.549274444580078
aI3
aI0
aa(lp117
F0.6588082909584045
aF-17.597877502441406
aI3
aI0
aa(lp118
F1.8295234441757202
aF-17.64600944519043
aI3
aI0
aa(lp119
F1.2369418144226074
aF-17.681297302246094
aI3
aI0
aa(lp120
F1.8284103870391846
aF-17.70724868774414
aI3
aI0
aa(lp121
F5.295238971710205
aF-17.736785888671875
aI3
aI0
aa(lp122
F8.342225074768066
aF-17.749195098876953
aI3
aI0
aa(lp123
F10.284398078918457
aF-17.742794036865234
aI3
aI0
aa(lp124
F6.577248573303223
aF-17.70773696899414
aI3
aI0
aa(lp125
F5.632424354553223
aF-17.640836715698242
aI3
aI0
aa(lp126
F1.8276474475860596
aF-17.58039665222168
aI3
aI0
aa(lp127
F2.4335856437683105
aF-17.537866592407227
aI3
aI0
aa(lp128
F2.1800854206085205
aF-17.51427459716797
aI3
aI0
aa(lp129
F1.268989086151123
aF-17.50189781188965
aI3
aI0
aa(lp130
F1.2351504564285278
aF-17.498842239379883
aI3
aI0
aa(lp131
F7.703174114227295
aF-17.493080139160156
aI3
aI0
aa(lp132
F1.2365056276321411
aF-17.49860382080078
aI3
aI0
aa(lp133
F2.7832794189453125
aF-17.516178131103516
aI3
aI0
aa(lp134
F7.409286022186279
aF-17.536527633666992
aI3
aI0
aa(lp135
F3.424123525619507
aF-17.572999954223633
aI3
aI0
aa(lp136
F1.8424476385116577
aF-17.613811492919922
aI3
aI0
aa(lp137
F9.957071304321289
aF-17.646982192993164
aI3
aI0
aa(lp138
F10.90645980834961
aF-17.668352127075195
aI3
aI0
aa(lp139
F8.665228843688965
aF-17.67637062072754
aI3
aI0
aa(lp140
F6.827006816864014
aF-17.69696617126465
aI3
aI0
aa(lp141
F0.3915765881538391
aF-17.694202423095703
aI3
aI0
aa(lp142
F1.834944486618042
aF-17.684112548828125
aI3
aI0
aa(lp143
F0.6510227918624878
aF-17.656234741210938
aI3
aI0
aa(lp144
F7.7300333976745605
aF-17.611801147460938
aI3
aI0
aa(lp145
F2.425812244415283
aF-17.58116340637207
aI3
aI0
aa(lp146
F6.785096168518066
aF-17.584430694580078
aI3
aI0
aa(lp147
F6.772970676422119
aF-17.57691192626953
aI3
aI0
aa(lp148
F0.9666570425033569
aF-17.568649291992188
aI3
aI0
aa(lp149
F8.714832305908203
aF-17.550199508666992
aI3
aI0
aa(lp150
F4.383552074432373
aF-17.544347763061523
aI3
aI0
aa(lp151
F10.463261604309082
aF-17.540264129638672
aI3
aI0
aa(lp152
F4.992932319641113
aF-17.553573608398438
aI3
aI0
aa(lp153
F1.5729492902755737
aF-17.572261810302734
aI3
aI0
aa(lp154
F9.455817222595215
aF-17.588504791259766
aI3
aI0
aa(lp155
F0.6254186630249023
aF-17.597145080566406
aI3
aI0
aa(lp156
F5.57818603515625
aF-17.57933807373047
aI3
aI0
aa(lp157
F1.5703752040863037
aF-17.56740379333496
aI3
aI0
aa(lp158
F5.567567348480225
aF-17.538232803344727
aI3
aI0
aa(lp159
F1.2290751934051514
aF-17.516313552856445
aI3
aI0
aa(lp160
F5.859423637390137
aF-17.48066520690918
aI3
aI0
aa(lp161
F2.182447671890259
aF-17.461227416992188
aI3
aI0
aa(lp162
F1.2474726438522339
aF-17.456701278686523
aI3
aI0
aa(lp163
F9.893157958984375
aF-17.459327697753906
aI3
aI0
aa(lp164
F1.5931506156921387
aF-17.47772979736328
aI3
aI0
aa(lp165
F1.2402336597442627
aF-17.507080078125
aI3
aI0
aa(lp166
F2.18819522857666
aF-17.550905227661133
aI3
aI0
aa(lp167
F1.2309973239898682
aF-17.591819763183594
aI3
aI0
aa(lp168
F0.664813220500946
aF-17.623533248901367
aI3
aI0
aa(lp169
F7.980429172515869
aF-17.6472110748291
aI3
aI0
aa(lp170
F5.5957536697387695
aF-17.639026641845703
aI3
aI0
aa(lp171
F1.8625004291534424
aF-17.632970809936523
aI3
aI0
aa(lp172
F0.6638967990875244
aF-17.6181697845459
aI3
aI0
aa(lp173
F6.781488418579102
aF-17.63051986694336
aI3
aI0
aa(lp174
F0.6639566421508789
aF-17.63262176513672
aI3
aI0
aa(lp175
F1.6024363040924072
aF-17.63416290283203
aI3
aI0
aa(lp176
F7.475158214569092
aF-17.65891456604004
aI3
aI0
aa(lp177
F3.710653066635132
aF-17.6850643157959
aI3
aI0
aa(lp178
F8.918400764465332
aF-17.691986083984375
aI3
aI0
aa(lp179
F0.6531593203544617
aF-17.679927825927734
aI3
aI0
aa(lp180
F5.615614891052246
aF-17.63722038269043
aI3
aI0
aa(lp181
F6.1336188316345215
aF-17.57042121887207
aI3
aI0
aa(lp182
F2.172116279602051
aF-17.521398544311523
aI3
aI0
aa(lp183
F6.502026081085205
aF-17.470787048339844
aI3
aI0
aa(lp184
F6.013003349304199
aF-17.462724685668945
aI3
aI0
aa(lp185
F0.6616870164871216
aF-17.462953567504883
aI3
aI0
aa(lp186
F1.2784546613693237
aF-17.476715087890625
aI3
aI0
aa(lp187
F2.789494037628174
aF-17.5032958984375
aI3
aI0
aa(lp188
F1.850032925605774
aF-17.54181480407715
aI3
aI0
aa(lp189
F6.504767417907715
aF-17.569171905517578
aI3
aI0
aa(lp190
F1.2614411115646362
aF-17.595293045043945
aI3
aI0
aa(lp191
F0.028075814247131348
aF-17.605266571044922
aI3
aI0
aa(lp192
F2.7985944747924805
aF-17.61784553527832
aI3
aI0
aa(lp193
F0.6414856314659119
aF-17.619754791259766
aI3
aI0
aa(lp194
F3.6270341873168945
aF-17.639108657836914
aI3
aI0
aa(lp195
F1.2303879261016846
aF-17.649383544921875
aI3
aI0
aa(lp196
F2.2082881927490234
aF-17.650833129882812
aI3
aI0
aa(lp197
F0.04537808150053024
aF-17.631290435791016
aI3
aI0
aa(lp198
F2.507190227508545
aF-17.611392974853516
aI3
aI0
aa(lp199
F7.655522346496582
aF-17.583316802978516
aI3
aI0
aa(lp200
F5.5836358070373535
aF-17.576637268066406
aI3
aI0
aa(lp201
F0.6283458471298218
aF-17.563323974609375
aI3
aI0
aa(lp202
F6.770972728729248
aF-17.54244613647461
aI3
aI0
aa(lp203
F2.772876501083374
aF-17.531755447387695
aI3
aI0
aa(lp204
F0.6238741874694824
aF-17.52098846435547
aI3
aI0
aa(lp205
F1.265567421913147
aF-17.517868041992188
aI3
aI0
aa(lp206
F2.9492669105529785
aF-17.521799087524414
aI3
aI0
aa(lp207
F5.522122859954834
aF-17.504032135009766
aI3
aI0
aa(lp208
F1.4387264251708984
aF-17.494243621826172
aI3
aI0
aa(lp209
F1.2476179599761963
aF-17.494970321655273
aI3
aI0
aa(lp210
F1.7595486640930176
aF-17.505277633666992
aI3
aI0
aa(lp211
F1.246802806854248
aF-17.523788452148438
aI3
aI0
aa(lp212
F3.034977674484253
aF-17.55948257446289
aI3
aI0
aa(lp213
F6.226757049560547
aF-17.57721519470215
aI3
aI0
aa(lp214
F1.8891003131866455
aF-17.5996036529541
aI3
aI0
aa(lp215
F3.971975564956665
aF-17.631866455078125
aI3
aI0
aa(lp216
F2.4256973266601562
aF-17.66451644897461
aI3
aI0
aa(lp217
F2.7692365646362305
aF-17.69036293029785
aI3
aI0
aa(lp218
F2.616938352584839
aF-17.707178115844727
aI3
aI0
aa(lp219
F0.8652157187461853
aF-17.701547622680664
aI3
aI0
aa(lp220
F1.898208498954773
aF-17.688405990600586
aI3
aI0
aa(lp221
F1.5789759159088135
aF-17.66797637939453
aI3
aI0
aa(lp222
F6.974063396453857
aF-17.625213623046875
aI3
aI0
aa(lp223
F1.8288264274597168
aF-17.58723258972168
aI3
aI0
aa(lp224
F1.6266694068908691
aF-17.556726455688477
aI3
aI0
aa(lp225
F2.5084211826324463
aF-17.53441047668457
aI3
aI0
aa(lp226
F5.566019535064697
aF-17.49768829345703
aI3
aI0
aa(lp227
F9.92516803741455
aF-17.471500396728516
aI3
aI0
aa(lp228
F1.8542600870132446
aF-17.464527130126953
aI3
aI0
aa(lp229
F9.484891891479492
aF-17.458343505859375
aI3
aI0
aa(lp230
F6.750333309173584
aF-17.45046043395996
aI3
aI0
aa(lp231
F2.0440821647644043
aF-17.458812713623047
aI3
aI0
aa(lp232
F0.83134925365448
aF-17.470571517944336
aI3
aI0
aa(lp233
F10.691009521484375
aF-17.50406265258789
aI3
aI0
aa(lp234
F10.534794807434082
aF-17.545251846313477
aI3
aI0
aa(lp235
F0.8560132384300232
aF-17.577964782714844
aI3
aI0
aa(lp236
F4.9821906089782715
aF-17.621055603027344
aI3
aI0
aa(lp237
F0.6734346747398376
aF-17.647647857666016
aI3
aI0
aa(lp238
F0.8495829105377197
aF-17.65548324584961
aI3
aI0
aa(lp239
F6.143202781677246
aF-17.63174819946289
aI3
aI0
aa(lp240
F3.976208209991455
aF-17.618703842163086
aI3
aI0
aa(lp241
F2.77128529548645
aF-17.60601043701172
aI3
aI0
aa(lp242
F2.6064956188201904
aF-17.600757598876953
aI3
aI0
aa(lp243
F6.193931579589844
aF-17.57795524597168
aI3
aI0
aa(lp244
F1.8309215307235718
aF-17.56265640258789
aI3
aI0
aa(lp245
F5.591063499450684
aF-17.567716598510742
aI3
aI0
aa(lp246
F8.257369995117188
aF-17.57180404663086
aI3
aI0
aa(lp247
F2.4697113037109375
aF-17.586820602416992
aI3
aI0
aa(lp248
F1.586017370223999
aF-17.604089736938477
aI3
aI0
aa(lp249
F1.2725595235824585
aF-17.617801666259766
aI3
aI0
aa(lp250
F1.6019867658615112
aF-17.630395889282227
aI3
aI0
aa(lp251
F2.0330452919006348
aF-17.618715286254883
aI2
aI0
aa(lp252
F2.766458511352539
aF-17.618310928344727
aI2
aI0
aa(lp253
F0.6903412342071533
aF-17.608076095581055
aI2
aI0
aa(lp254
F1.5725395679473877
aF-17.59656524658203
aI2
aI0
aa(lp255
F6.174332141876221
aF-17.561607360839844
aI2
aI0
aa(lp256
F0.19625334441661835
aF-17.516210556030273
aI2
aI0
aa(lp257
F4.999197006225586
aF-17.493621826171875
aI2
aI0
aa(lp258
F3.5389857292175293
aF-17.47350311279297
aI2
aI0
aa(lp259
F6.0775532722473145
aF-17.441743850708008
aI2
aI0
aa(lp260
F7.853257179260254
aF-17.45513916015625
aI2
aI0
aa(lp261
F6.687600612640381
aF-17.464750289916992
aI2
aI0
aa(lp262
F1.240293025970459
aF-17.483413696289062
aI2
aI0
aa(lp263
F4.58745002746582
aF-17.514495849609375
aI2
aI0
aa(lp264
F1.2323726415634155
aF-17.547832489013672
aI2
aI0
aa(lp265
F2.0518147945404053
aF-17.566612243652344
aI2
aI0
aa(lp266
F8.754450798034668
aF-17.570255279541016
aI2
aI0
aa(lp267
F0.6893094182014465
aF-17.56658172607422
aI2
aI0
aa(lp268
F3.2639760971069336
aF-17.56140899658203
aI2
aI0
aa(lp269
F0.022604670375585556
aF-17.5455379486084
aI2
aI0
aa(lp270
F1.8366129398345947
aF-17.537487030029297
aI2
aI0
aa(lp271
F0.6245976090431213
aF-17.526870727539062
aI2
aI0
aa(lp272
F5.9330735206604
aF-17.53403663635254
aI2
aI0
aa(lp273
F7.374513149261475
aF-17.539138793945312
aI2
aI0
aa(lp274
F8.070008277893066
aF-17.52046012878418
aI2
aI0
aa(lp275
F4.601205825805664
aF-17.531110763549805
aI2
aI0
aa(lp276
F4.597329616546631
aF-17.56454849243164
aI2
aI0
aa(lp277
F2.77264404296875
aF-17.598403930664062
aI2
aI0
aa(lp278
F4.7173004150390625
aF-17.637710571289062
aI2
aI0
aa(lp279
F2.471078395843506
aF-17.67812156677246
aI2
aI0
aa(lp280
F1.4198637008666992
aF-17.69918441772461
aI2
aI0
aa(lp281
F2.043222665786743
aF-17.6885986328125
aI2
aI0
aa(lp282
F0.6525976657867432
aF-17.660045623779297
aI2
aI0
aa(lp283
F9.122455596923828
aF-17.60348129272461
aI2
aI0
aa(lp284
F6.183495998382568
aF-17.571001052856445
aI2
aI0
aa(lp285
F1.8342357873916626
aF-17.546466827392578
aI2
aI0
aa(lp286
F12.242597579956055
aF-17.50078582763672
aI2
aI0
aa(lp287
F0.7955872416496277
aF-17.455810546875
aI2
aI0
aa(lp288
F0.7923293709754944
aF-17.418441772460938
aI2
aI0
aa(lp289
F0.632792592048645
aF-17.39435577392578
aI2
aI0
aa(lp290
F1.876340389251709
aF-17.394601821899414
aI2
aI0
aa(lp291
F0.7984968423843384
aF-17.403928756713867
aI2
aI0
aa(lp292
F3.781465768814087
aF-17.44359588623047
aI2
aI0
aa(lp293
F6.134043216705322
aF-17.470827102661133
aI2
aI0
aa(lp294
F1.238423228263855
aF-17.506376266479492
aI2
aI0
aa(lp295
F1.2338252067565918
aF-17.545085906982422
aI2
aI0
aa(lp296
F1.808153510093689
aF-17.587263107299805
aI2
aI0
aa(lp297
F7.317834854125977
aF-17.61117935180664
aI2
aI0
aa(lp298
F4.744598388671875
aF-17.6452579498291
aI2
aI0
aa(lp299
F1.8373883962631226
aF-17.672008514404297
aI2
aI0
aa(lp300
F0.6515918970108032
aF-17.678804397583008
aI2
aI0
aa(lp301
F1.8409473896026611
aF-17.673749923706055
aI4
aI0
aa(lp302
F1.8716354370117188
aF-17.664152145385742
aI4
aI0
aa(lp303
F9.499390602111816
aF-17.644039154052734
aI4
aI0
aa(lp304
F2.7645010948181152
aF-17.63169288635254
aI4
aI0
aa(lp305
F7.92164945602417
aF-17.59068489074707
aI4
aI0
aa(lp306
F0.2588680386543274
aF-17.537853240966797
aI4
aI0
aa(lp307
F0.6857879161834717
aF-17.486053466796875
aI4
aI0
aa(lp308
F3.531344175338745
aF-17.44098663330078
aI4
aI0
aa(lp309
F5.532037734985352
aF-17.39107894897461
aI4
aI0
aa(lp310
F5.119011402130127
aF-17.378192901611328
aI4
aI0
aa(lp311
F1.4184892177581787
aF-17.385452270507812
aI4
aI0
aa(lp312
F5.693871021270752
aF-17.427566528320312
aI4
aI0
aa(lp313
F0.6656701564788818
aF-17.474767684936523
aI4
aI0
aa(lp314
F0.6253028512001038
aF-17.52020835876465
aI4
aI0
aa(lp315
F1.1331124305725098
aF-17.562387466430664
aI4
aI0
aa(lp316
F1.8475561141967773
aF-17.604740142822266
aI4
aI0
aa(lp317
F0.03891322761774063
aF-17.627063751220703
aI4
aI0
aa(lp318
F1.8352293968200684
aF-17.64475440979004
aI4
aI0
aa(lp319
F0.6457043290138245
aF-17.64415740966797
aI4
aI0
aa(lp320
F0.04707738757133484
aF-17.62242889404297
aI4
aI0
aa(lp321
F0.039820801466703415
aF-17.584007263183594
aI4
aI0
aa(lp322
F7.123002052307129
aF-17.514602661132812
aI4
aI0
aa(lp323
F5.60860538482666
aF-17.474884033203125
aI4
aI0
aa(lp324
F12.22814655303955
aF-17.423337936401367
aI4
aI0
aa(lp325
F4.462136745452881
aF-17.396211624145508
aI4
aI0
aa(lp326
F3.6762263774871826
aF-17.395442962646484
aI4
aI0
aa(lp327
F1.8752071857452393
aF-17.416980743408203
aI4
aI0
aa(lp328
F1.8681312799453735
aF-17.455150604248047
aI4
aI0
aa(lp329
F7.545660495758057
aF-17.49203109741211
aI4
aI0
aa(lp330
F1.2353872060775757
aF-17.533042907714844
aI4
aI0
aa(lp331
F2.33199143409729
aF-17.568763732910156
aI4
aI0
aa(lp332
F0.6302114129066467
aF-17.593353271484375
aI4
aI0
aa(lp333
F2.442323923110962
aF-17.62392807006836
aI4
aI0
aa(lp334
F2.0165083408355713
aF-17.62961196899414
aI4
aI0
aa(lp335
F0.07348658889532089
aF-17.619136810302734
aI4
aI0
aa(lp336
F9.595455169677734
aF-17.606260299682617
aI4
aI0
aa(lp337
F1.44522225856781
aF-17.570186614990234
aI4
aI0
aa(lp338
F5.568112373352051
aF-17.51595115661621
aI4
aI0
aa(lp339
F1.7983793020248413
aF-17.474300384521484
aI4
aI0
aa(lp340
F0.6240601539611816
aF-17.439531326293945
aI4
aI0
aa(lp341
F8.329130172729492
aF-17.409631729125977
aI4
aI0
aa(lp342
F1.7674338817596436
aF-17.397171020507812
aI4
aI0
aa(lp343
F3.465644121170044
aF-17.422204971313477
aI4
aI0
aa(lp344
F5.10085916519165
aF-17.471179962158203
aI4
aI0
aa(lp345
F3.4396626949310303
aF-17.534866333007812
aI4
aI0
aa(lp346
F2.446326971054077
aF-17.604230880737305
aI4
aI0
aa(lp347
F9.095548629760742
aF-17.65534782409668
aI4
aI0
aa(lp348
F4.432548999786377
aF-17.701589584350586
aI4
aI0
aa(lp349
F0.6655333638191223
aF-17.719816207885742
aI4
aI0
aa(lp350
F6.292688369750977
aF-17.70136260986328
aI4
aI0
aa(lp351
F5.947848320007324
aF-17.678436279296875
aI3
aI0
aa(lp352
F0.6537426114082336
aF-17.64065170288086
aI3
aI0
aa(lp353
F2.604196071624756
aF-17.604419708251953
aI3
aI0
aa(lp354
F15.783510208129883
aF-17.586008071899414
aI3
aI0
aa(lp355
F2.8378758430480957
aF-17.567676544189453
aI3
aI0
aa(lp356
F1.243665099143982
aF-17.54950523376465
aI3
aI0
aa(lp357
F3.0497398376464844
aF-17.548355102539062
aI3
aI0
aa(lp358
F1.2354099750518799
aF-17.546371459960938
aI3
aI0
aa(lp359
F1.2347052097320557
aF-17.544086456298828
aI3
aI0
aa(lp360
F0.053209755569696426
aF-17.53373908996582
aI3
aI0
aa(lp361
F0.7992175221443176
aF-17.51792335510254
aI3
aI0
aa(lp362
F3.3871865272521973
aF-17.51701545715332
aI3
aI0
aa(lp363
F6.773375988006592
aF-17.510112762451172
aI3
aI0
aa(lp364
F8.375168800354004
aF-17.53936767578125
aI3
aI0
aa(lp365
F8.352935791015625
aF-17.562828063964844
aI3
aI0
aa(lp366
F11.219908714294434
aF-17.618650436401367
aI3
aI0
aa(lp367
F1.866402506828308
aF-17.6677303314209
aI3
aI0
aa(lp368
F3.967076063156128
aF-17.715116500854492
aI3
aI0
aa(lp369
F0.7574530243873596
aF-17.73369026184082
aI3
aI0
aa(lp370
F0.6847149133682251
aF-17.726396560668945
aI3
aI0
aa(lp371
F4.423985958099365
aF-17.707239151000977
aI3
aI0
aa(lp372
F1.4749534130096436
aF-17.657384872436523
aI3
aI0
aa(lp373
F2.465512990951538
aF-17.595436096191406
aI3
aI0
aa(lp374
F0.03647834062576294
aF-17.525062561035156
aI3
aI0
aa(lp375
F6.899514198303223
aF-17.448322296142578
aI3
aI0
aa(lp376
F5.123953342437744
aF-17.398881912231445
aI3
aI0
aa(lp377
F8.054080963134766
aF-17.37723159790039
aI3
aI0
aa(lp378
F9.003207206726074
aF-17.37175941467285
aI3
aI0
aa(lp379
F7.038661479949951
aF-17.37162208557129
aI3
aI0
aa(lp380
F5.684368133544922
aF-17.406173706054688
aI3
aI0
aa(lp381
F4.967291355133057
aF-17.478811264038086
aI3
aI0
aa(lp382
F5.106930732727051
aF-17.56296730041504
aI3
aI0
aa(lp383
F1.8366023302078247
aF-17.643474578857422
aI3
aI0
aa(lp384
F1.4187252521514893
aF-17.704450607299805
aI3
aI0
aa(lp385
F1.2580022811889648
aF-17.742462158203125
aI3
aI0
aa(lp386
F1.2710083723068237
aF-17.75702667236328
aI3
aI0
aa(lp387
F1.033171534538269
aF-17.746326446533203
aI3
aI0
aa(lp388
F6.263699054718018
aF-17.702476501464844
aI3
aI0
aa(lp389
F2.0168025493621826
aF-17.650606155395508
aI3
aI0
aa(lp390
F11.729636192321777
aF-17.60598373413086
aI3
aI0
aa(lp391
F3.974412441253662
aF-17.572629928588867
aI3
aI0
aa(lp392
F5.212991237640381
aF-17.55063247680664
aI3
aI0
aa(lp393
F0.02286507561802864
aF-17.520658493041992
aI3
aI0
aa(lp394
F2.464449882507324
aF-17.506019592285156
aI3
aI0
aa(lp395
F1.438259243965149
aF-17.476266860961914
aI3
aI0
aa(lp396
F1.2976826429367065
aF-17.456405639648438
aI3
aI0
aa(lp397
F5.535033226013184
aF-17.428974151611328
aI3
aI0
aa(lp398
F2.8883609771728516
aF-17.426082611083984
aI3
aI0
aa(lp399
F1.8642725944519043
aF-17.441055297851562
aI3
aI0
aa(lp400
F8.116534233093262
aF-17.482662200927734
aI3
aI0
aa(lp401
F1.8929417133331299
aF-17.5290470123291
aI3
aI0
aa(lp402
F3.0568394660949707
aF-17.58660316467285
aI3
aI0
aa(lp403
F2.9600629806518555
aF-17.63609504699707
aI3
aI0
aa(lp404
F1.8379409313201904
aF-17.676605224609375
aI3
aI0
aa(lp405
F0.6654807925224304
aF-17.694414138793945
aI3
aI0
aa(lp406
F1.2862889766693115
aF-17.694564819335938
aI3
aI0
aa(lp407
F1.8537110090255737
aF-17.685396194458008
aI3
aI0
aa(lp408
F12.245477676391602
aF-17.660615921020508
aI3
aI0
aa(lp409
F2.267930507659912
aF-17.61298370361328
aI3
aI0
aa(lp410
F0.04533718153834343
aF-17.55315589904785
aI3
aI0
aa(lp411
F0.7027751803398132
aF-17.491262435913086
aI3
aI0
aa(lp412
F6.701136589050293
aF-17.426528930664062
aI3
aI0
aa(lp413
F1.3619110584259033
aF-17.362018585205078
aI3
aI0
aa(lp414
F1.8868083953857422
aF-17.327152252197266
aI3
aI0
aa(lp415
F10.630485534667969
aF-17.316383361816406
aI3
aI0
aa(lp416
F0.06526241451501846
aF-17.318084716796875
aI3
aI0
aa(lp417
F6.69000768661499
aF-17.32619285583496
aI3
aI0
aa(lp418
F0.6524381637573242
aF-17.348684310913086
aI3
aI0
aa(lp419
F6.6123504638671875
aF-17.400718688964844
aI3
aI0
aa(lp420
F0.6334052085876465
aF-17.456653594970703
aI3
aI0
aa(lp421
F2.2516300678253174
aF-17.514432907104492
aI3
aI0
aa(lp422
F1.3839741945266724
aF-17.55113983154297
aI3
aI0
aa(lp423
F6.79186487197876
aF-17.55689239501953
aI3
aI0
aa(lp424
F1.4532487392425537
aF-17.55584144592285
aI3
aI0
aa(lp425
F0.693538248538971
aF-17.546281814575195
aI3
aI0
aa(lp426
F5.480352878570557
aF-17.538307189941406
aI3
aI0
aa(lp427
F6.11679220199585
aF-17.51312255859375
aI3
aI0
aa(lp428
F5.610172271728516
aF-17.508533477783203
aI3
aI0
aa(lp429
F12.105769157409668
aF-17.549633026123047
aI3
aI0
aa(lp430
F1.8563058376312256
aF-17.591018676757812
aI3
aI0
aa(lp431
F5.04076623916626
aF-17.636383056640625
aI3
aI0
aa(lp432
F0.6499844193458557
aF-17.661272048950195
aI3
aI0
aa(lp433
F0.8372757434844971
aF-17.664939880371094
aI3
aI0
aa(lp434
F3.8260769844055176
aF-17.65506935119629
aI3
aI0
aa(lp435
F0.704681396484375
aF-17.629453659057617
aI3
aI0
aa(lp436
F1.4182453155517578
aF-17.595443725585938
aI3
aI0
aa(lp437
F5.917944431304932
aF-17.567550659179688
aI3
aI0
aa(lp438
F7.125212669372559
aF-17.558265686035156
aI3
aI0
aa(lp439
F1.8389943838119507
aF-17.552425384521484
aI3
aI0
aa(lp440
F4.386183261871338
aF-17.55276107788086
aI3
aI0
aa(lp441
F0.6294388175010681
aF-17.545692443847656
aI3
aI0
aa(lp442
F1.2323803901672363
aF-17.539011001586914
aI3
aI0
aa(lp443
F7.463541030883789
aF-17.534439086914062
aI3
aI0
aa(lp444
F5.603701114654541
aF-17.545635223388672
aI3
aI0
aa(lp445
F0.6348178386688232
aF-17.551898956298828
aI3
aI0
aa(lp446
F6.942277908325195
aF-17.54458236694336
aI3
aI0
aa(lp447
F7.955434322357178
aF-17.56395721435547
aI3
aI0
aa(lp448
F0.7986688613891602
aF-17.57079315185547
aI3
aI0
aa(lp449
F1.236099362373352
aF-17.5741024017334
aI3
aI0
aa(lp450
F3.97804594039917
aF-17.592275619506836
aI3
aI0
aa(lp451
F6.127373695373535
aF-17.58283233642578
aI0
aI0
aa(lp452
F1.8446139097213745
aF-17.57191276550293
aI0
aI0
aa(lp453
F0.1324295699596405
aF-17.549428939819336
aI0
aI0
aa(lp454
F2.1832284927368164
aF-17.535505294799805
aI0
aI0
aa(lp455
F0.08336476981639862
aF-17.510866165161133
aI0
aI0
aa(lp456
F3.9654409885406494
aF-17.50278663635254
aI0
aI0
aa(lp457
F3.2099952697753906
aF-17.493927001953125
aI0
aI0
aa(lp458
F2.433894157409668
aF-17.483020782470703
aI0
aI0
aa(lp459
F2.838289976119995
aF-17.474245071411133
aI0
aI0
aa(lp460
F1.2659080028533936
aF-17.454116821289062
aI0
aI0
aa(lp461
F1.8563134670257568
aF-17.447784423828125
aI0
aI0
aa(lp462
F1.3042662143707275
aF-17.452165603637695
aI0
aI0
aa(lp463
F4.0628814697265625
aF-17.476776123046875
aI0
aI0
aa(lp464
F7.905244827270508
aF-17.49268913269043
aI0
aI0
aa(lp465
F1.238455891609192
aF-17.509973526000977
aI0
aI0
aa(lp466
F5.6137566566467285
aF-17.544185638427734
aI0
aI0
aa(lp467
F0.2010500729084015
aF-17.562875747680664
aI0
aI0
aa(lp468
F0.8600566387176514
aF-17.569377899169922
aI0
aI0
aa(lp469
F3.004324197769165
aF-17.573129653930664
aI0
aI0
aa(lp470
F1.2383716106414795
aF-17.57237434387207
aI0
aI0
aa(lp471
F1.4519786834716797
aF-17.563220977783203
aI0
aI0
aa(lp472
F0.20511163771152496
aF-17.538471221923828
aI0
aI0
aa(lp473
F0.6306835412979126
aF-17.5102596282959
aI0
aI0
aa(lp474
F0.0792662650346756
aF-17.47776985168457
aI0
aI0
aa(lp475
F0.8500882387161255
aF-17.445804595947266
aI0
aI0
aa(lp476
F1.2440929412841797
aF-17.424564361572266
aI0
aI0
aa(lp477
F0.7969919443130493
aF-17.411169052124023
aI0
aI0
aa(lp478
F8.172208786010742
aF-17.392513275146484
aI0
aI0
aa(lp479
F1.253908634185791
aF-17.391374588012695
aI0
aI0
aa(lp480
F0.6972385048866272
aF-17.397127151489258
aI0
aI0
aa(lp481
F1.9809706211090088
aF-17.405292510986328
aI0
aI0
aa(lp482
F3.335331678390503
aF-17.438838958740234
aI0
aI0
aa(lp483
F2.0291264057159424
aF-17.48388671875
aI0
aI0
aa(lp484
F4.746759414672852
aF-17.53911781311035
aI0
aI0
aa(lp485
F9.126992225646973
aF-17.58455467224121
aI0
aI0
aa(lp486
F1.2423772811889648
aF-17.619430541992188
aI0
aI0
aa(lp487
F6.549144744873047
aF-17.62064552307129
aI0
aI0
aa(lp488
F1.249664068222046
aF-17.61220359802246
aI0
aI0
aa(lp489
F2.8189382553100586
aF-17.6003475189209
aI0
aI0
aa(lp490
F5.922214508056641
aF-17.589982986450195
aI0
aI0
aa(lp491
F0.637748122215271
aF-17.570449829101562
aI0
aI0
aa(lp492
F2.5549302101135254
aF-17.551586151123047
aI0
aI0
aa(lp493
F0.3707214295864105
aF-17.525611877441406
aI0
aI0
aa(lp494
F5.002473831176758
aF-17.517330169677734
aI0
aI0
aa(lp495
F1.8468306064605713
aF-17.514554977416992
aI0
aI0
aa(lp496
F5.377556324005127
aF-17.520360946655273
aI0
aI0
aa(lp497
F3.210231065750122
aF-17.522432327270508
aI0
aI0
aa(lp498
F4.990481376647949
aF-17.538984298706055
aI0
aI0
aa(lp499
F0.9758211374282837
aF-17.550168991088867
aI0
aI0
aa(lp500
F0.028384264558553696
aF-17.546005249023438
aI0
aI0
aa(lp501
F1.2420772314071655
aF-17.539966583251953
aI0
aI0
aa(lp502
F0.6900081038475037
aF-17.52767562866211
aI0
aI0
aa(lp503
F0.6373463273048401
aF-17.51131248474121
aI0
aI0
aa(lp504
F2.7837750911712646
aF-17.499725341796875
aI0
aI0
aa(lp505
F6.57771110534668
aF-17.5051212310791
aI0
aI0
aa(lp506
F0.6348238587379456
aF-17.506969451904297
aI0
aI0
aa(lp507
F1.2035348415374756
aF-17.505895614624023
aI0
aI0
aa(lp508
F0.02079462632536888
aF-17.49567413330078
aI0
aI0
aa(lp509
F1.2409549951553345
aF-17.487022399902344
aI0
aI0
aa(lp510
F4.401196479797363
aF-17.487621307373047
aI0
aI0
aa(lp511
F5.549056529998779
aF-17.471534729003906
aI0
aI0
aa(lp512
F6.889589309692383
aF-17.44809913635254
aI0
aI0
aa(lp513
F0.7910196185112
aF-17.425193786621094
aI0
aI0
aa(lp514
F1.2902652025222778
aF-17.41328239440918
aI0
aI0
aa(lp515
F2.4858548641204834
aF-17.421842575073242
aI0
aI0
aa(lp516
F1.5994831323623657
aF-17.443199157714844
aI0
aI0
aa(lp517
F1.8603432178497314
aF-17.473995208740234
aI0
aI0
aa(lp518
F1.241634726524353
aF-17.50499725341797
aI0
aI0
aa(lp519
F1.5562047958374023
aF-17.512744903564453
aI0
aI0
aa(lp520
F2.959230899810791
aF-17.521451950073242
aI0
aI0
aa(lp521
F0.9512677788734436
aF-17.52054214477539
aI0
aI0
aa(lp522
F6.777258396148682
aF-17.5089111328125
aI0
aI0
aa(lp523
F0.6314952373504639
aF-17.491939544677734
aI0
aI0
aa(lp524
F5.070514678955078
aF-17.491146087646484
aI0
aI0
aa(lp525
F0.01968912035226822
aF-17.480316162109375
aI0
aI0
aa(lp526
F4.995367050170898
aF-17.469905853271484
aI0
aI0
aa(lp527
F5.186047554016113
aF-17.47309112548828
aI0
aI0
aa(lp528
F1.2407176494598389
aF-17.479555130004883
aI0
aI0
aa(lp529
F3.6034655570983887
aF-17.494964599609375
aI0
aI0
aa(lp530
F1.2402570247650146
aF-17.510456085205078
aI0
aI0
aa(lp531
F0.6905559301376343
aF-17.519678115844727
aI0
aI0
aa(lp532
F2.4234559535980225
aF-17.53192138671875
aI0
aI0
aa(lp533
F2.019716739654541
aF-17.542346954345703
aI0
aI0
aa(lp534
F5.938727855682373
aF-17.557048797607422
aI0
aI0
aa(lp535
F7.131907939910889
aF-17.585908889770508
aI0
aI0
aa(lp536
F0.7035799026489258
aF-17.599742889404297
aI0
aI0
aa(lp537
F0.05004775524139404
aF-17.59058380126953
aI0
aI0
aa(lp538
F0.7215831875801086
aF-17.56757164001465
aI0
aI0
aa(lp539
F1.4564721584320068
aF-17.521068572998047
aI0
aI0
aa(lp540
F0.6784185171127319
aF-17.471195220947266
aI0
aI0
aa(lp541
F6.988466262817383
aF-17.43925666809082
aI0
aI0
aa(lp542
F1.7555568218231201
aF-17.424272537231445
aI0
aI0
aa(lp543
F7.2309770584106445
aF-17.43607521057129
aI0
aI0
aa(lp544
F8.011225700378418
aF-17.477588653564453
aI0
aI0
aa(lp545
F1.3013486862182617
aF-17.519804000854492
aI0
aI0
aa(lp546
F1.2828528881072998
aF-17.55592918395996
aI0
aI0
aa(lp547
F5.358095645904541
aF-17.594894409179688
aI0
aI0
aa(lp548
F1.2506989240646362
aF-17.619857788085938
aI0
aI0
aa(lp549
F0.6544460654258728
aF-17.62572479248047
aI0
aI0
aa(lp550
F0.6579796671867371
aF-17.612491607666016
aI0
aI0
aa(lp551
F7.305240154266357
aF-17.567699432373047
aI0
aI0
aa(lp552
F5.93024206161499
aF-17.528196334838867
aI0
aI0
aa(lp553
F2.9576101303100586
aF-17.491130828857422
aI0
aI0
aa(lp554
F6.618103504180908
aF-17.433046340942383
aI0
aI0
aa(lp555
F0.7838807106018066
aF-17.378520965576172
aI0
aI0
aa(lp556
F0.014795219525694847
aF-17.33118438720703
aI0
aI0
aa(lp557
F1.814955472946167
aF-17.308269500732422
aI0
aI0
aa(lp558
F2.0760128498077393
aF-17.311901092529297
aI0
aI0
aa(lp559
F0.6481522917747498
aF-17.325904846191406
aI0
aI0
aa(lp560
F0.1714191734790802
aF-17.34656524658203
aI0
aI0
aa(lp561
F0.63901686668396
aF-17.37566375732422
aI0
aI0
aa(lp562
F0.6354105472564697
aF-17.409273147583008
aI0
aI0
aa(lp563
F2.433840036392212
aF-17.441272735595703
aI0
aI0
aa(lp564
F0.9802031517028809
aF-17.47500991821289
aI0
aI0
aa(lp565
F7.383598327636719
aF-17.503385543823242
aI0
aI0
aa(lp566
F2.1648213863372803
aF-17.516460418701172
aI0
aI0
aa(lp567
F1.3028076887130737
aF-17.526273727416992
aI0
aI0
aa(lp568
F6.80449914932251
aF-17.501850128173828
aI0
aI0
aa(lp569
F0.8498585224151611
aF-17.470413208007812
aI0
aI0
aa(lp570
F2.499382972717285
aF-17.43916130065918
aI0
aI0
aa(lp571
F4.920859336853027
aF-17.39257049560547
aI0
aI0
aa(lp572
F5.849417209625244
aF-17.375680923461914
aI0
aI0
aa(lp573
F1.976193904876709
aF-17.360551834106445
aI0
aI0
aa(lp574
F1.814058780670166
aF-17.350461959838867
aI0
aI0
aa(lp575
F3.0652942657470703
aF-17.353652954101562
aI0
aI0
aa(lp576
F2.5124218463897705
aF-17.381200790405273
aI0
aI0
aa(lp577
F7.199512958526611
aF-17.396352767944336
aI0
aI0
aa(lp578
F2.86681866645813
aF-17.42711639404297
aI0
aI0
aa(lp579
F0.6299916505813599
aF-17.457307815551758
aI0
aI0
aa(lp580
F1.4051265716552734
aF-17.48528289794922
aI0
aI0
aa(lp581
F11.012189865112305
aF-17.476713180541992
aI0
aI0
aa(lp582
F7.4756293296813965
aF-17.449312210083008
aI0
aI0
aa(lp583
F7.214870452880859
aF-17.409164428710938
aI0
aI0
aa(lp584
F0.630906879901886
aF-17.376317977905273
aI0
aI0
aa(lp585
F0.7861472964286804
aF-17.352663040161133
aI0
aI0
aa(lp586
F3.4868931770324707
aF-17.35590362548828
aI0
aI0
aa(lp587
F0.16344399750232697
aF-17.359996795654297
aI0
aI0
aa(lp588
F1.814152717590332
aF-17.365943908691406
aI0
aI0
aa(lp589
F0.635874330997467
aF-17.378204345703125
aI0
aI0
aa(lp590
F5.227880001068115
aF-17.414369583129883
aI0
aI0
aa(lp591
F1.928555965423584
aF-17.461181640625
aI0
aI0
aa(lp592
F4.221964359283447
aF-17.520742416381836
aI0
aI0
aa(lp593
F1.4482783079147339
aF-17.574203491210938
aI0
aI0
aa(lp594
F4.398943901062012
aF-17.620513916015625
aI0
aI0
aa(lp595
F1.6077678203582764
aF-17.635467529296875
aI0
aI0
aa(lp596
F2.0510480403900146
aF-17.622045516967773
aI0
aI0
aa(lp597
F0.7616021633148193
aF-17.590408325195312
aI0
aI0
aa(lp598
F5.1021575927734375
aF-17.55817413330078
aI0
aI0
aa(lp599
F2.6158459186553955
aF-17.533632278442383
aI0
aI0
aa(lp600
F0.6382296681404114
aF-17.502119064331055
aI0
aI0
aa(lp601
F0.8453863263130188
aF-17.46689224243164
aI0
aI0
aa(lp602
F2.0138065814971924
aF-17.441242218017578
aI0
aI0
aa(lp603
F4.127884864807129
aF-17.43653106689453
aI0
aI0
aa(lp604
F4.412591934204102
aF-17.446155548095703
aI0
aI0
aa(lp605
F6.772146701812744
aF-17.449901580810547
aI0
aI0
aa(lp606
F1.2050024271011353
aF-17.440080642700195
aI0
aI0
aa(lp607
F2.3283214569091797
aF-17.423439025878906
aI0
aI0
aa(lp608
F0.6314569711685181
aF-17.411067962646484
aI0
aI0
aa(lp609
F5.796053409576416
aF-17.422775268554688
aI0
aI0
aa(lp610
F1.2494776248931885
aF-17.440460205078125
aI0
aI0
aa(lp611
F0.6298880577087402
aF-17.4566650390625
aI0
aI0
aa(lp612
F4.024850368499756
aF-17.472625732421875
aI0
aI0
aa(lp613
F7.839770317077637
aF-17.471309661865234
aI0
aI0
aa(lp614
F8.81294059753418
aF-17.453720092773438
aI0
aI0
aa(lp615
F0.059724971652030945
aF-17.42926788330078
aI0
aI0
aa(lp616
F0.012708531692624092
aF-17.4033260345459
aI0
aI0
aa(lp617
F0.011950336396694183
aF-17.37755012512207
aI0
aI0
aa(lp618
F6.1875386238098145
aF-17.348743438720703
aI0
aI0
aa(lp619
F5.136867523193359
aF-17.349489212036133
aI0
aI0
aa(lp620
F2.1918106079101562
aF-17.362205505371094
aI0
aI0
aa(lp621
F1.3001786470413208
aF-17.385604858398438
aI0
aI0
aa(lp622
F3.8658642768859863
aF-17.420997619628906
aI0
aI0
aa(lp623
F0.6311940550804138
aF-17.45566177368164
aI0
aI0
aa(lp624
F2.206604242324829
aF-17.499305725097656
aI0
aI0
aa(lp625
F6.872598648071289
aF-17.530284881591797
aI0
aI0
aa(lp626
F2.451751708984375
aF-17.545320510864258
aI0
aI0
aa(lp627
F0.0965975672006607
aF-17.53914451599121
aI0
aI0
aa(lp628
F1.2496956586837769
aF-17.526500701904297
aI0
aI0
aa(lp629
F0.8384021520614624
aF-17.50498390197754
aI0
aI0
aa(lp630
F5.564969539642334
aF-17.4622802734375
aI0
aI0
aa(lp631
F0.6328403949737549
aF-17.420080184936523
aI0
aI0
aa(lp632
F3.276003122329712
aF-17.404727935791016
aI0
aI0
aa(lp633
F1.8160486221313477
aF-17.3866024017334
aI0
aI0
aa(lp634
F2.4360666275024414
aF-17.374164581298828
aI0
aI0
aa(lp635
F8.553950309753418
aF-17.3736572265625
aI0
aI0
aa(lp636
F2.664919853210449
aF-17.378772735595703
aI0
aI0
aa(lp637
F1.2546350955963135
aF-17.394367218017578
aI0
aI0
aa(lp638
F1.2502015829086304
aF-17.41623306274414
aI0
aI0
aa(lp639
F3.4577996730804443
aF-17.451826095581055
aI0
aI0
aa(lp640
F1.4062432050704956
aF-17.48746109008789
aI0
aI0
aa(lp641
F0.023521682247519493
aF-17.5083065032959
aI0
aI0
aa(lp642
F8.364814758300781
aF-17.49246597290039
aI0
aI0
aa(lp643
F3.136904716491699
aF-17.495145797729492
aI0
aI0
aa(lp644
F1.8561670780181885
aF-17.50156021118164
aI0
aI0
aa(lp645
F2.0149433612823486
aF-17.512069702148438
aI0
aI0
aa(lp646
F0.027550648897886276
aF-17.50739860534668
aI0
aI0
aa(lp647
F1.2458521127700806
aF-17.501007080078125
aI0
aI0
aa(lp648
F6.544519901275635
aF-17.508827209472656
aI0
aI0
aa(lp649
F7.2435832023620605
aF-17.491498947143555
aI0
aI0
aa(lp650
F0.8035604357719421
aF-17.46790313720703
aI0
aI0
aa(lp651
F0.7648632526397705
aF-17.439050674438477
aI0
aI0
aa(lp652
F7.92840576171875
aF-17.412349700927734
aI0
aI0
aa(lp653
F7.317017555236816
aF-17.38358497619629
aI0
aI0
aa(lp654
F2.9035892486572266
aF-17.375261306762695
aI0
aI0
aa(lp655
F0.4273322522640228
aF-17.374465942382812
aI0
aI0
aa(lp656
F3.9677791595458984
aF-17.395051956176758
aI0
aI0
aa(lp657
F12.89006233215332
aF-17.42688751220703
aI0
aI0
aa(lp658
F1.3607233762741089
aF-17.439477920532227
aI0
aI0
aa(lp659
F6.600235462188721
aF-17.427581787109375
aI0
aI0
aa(lp660
F0.6320661306381226
aF-17.41629981994629
aI0
aI0
aa(lp661
F12.231172561645508
aF-17.4121150970459
aI0
aI0
aa(lp662
F3.151566505432129
aF-17.415895462036133
aI0
aI0
aa(lp663
F0.014381014741957188
aF-17.415584564208984
aI0
aI0
aa(lp664
F1.257670521736145
aF-17.422311782836914
aI0
aI0
aa(lp665
F0.1743682473897934
aF-17.420820236206055
aI0
aI0
aa(lp666
F0.7919788956642151
aF-17.420122146606445
aI0
aI0
aa(lp667
F0.6317884922027588
aF-17.419647216796875
aI0
aI0
aa(lp668
F0.013541916385293007
aF-17.414974212646484
aI0
aI0
aa(lp669
F0.6321067214012146
aF-17.411691665649414
aI0
aI0
aa(lp670
F1.2510794401168823
aF-17.414737701416016
aI0
aI0
aa(lp671
F6.434340953826904
aF-17.443872451782227
aI0
aI0
aa(lp672
F0.6754699349403381
aF-17.465761184692383
aI0
aI0
aa(lp673
F10.070047378540039
aF-17.46613883972168
aI0
aI0
aa(lp674
F7.8426713943481445
aF-17.44961929321289
aI0
aI0
aa(lp675
F6.758166313171387
aF-17.421724319458008
aI0
aI0
aa(lp676
F5.697962284088135
aF-17.38430404663086
aI0
aI0
aa(lp677
F1.3163641691207886
aF-17.360370635986328
aI0
aI0
aa(lp678
F1.3587208986282349
aF-17.332731246948242
aI0
aI0
aa(lp679
F0.07423527538776398
aF-17.312219619750977
aI0
aI0
aa(lp680
F0.6449939012527466
aF-17.306154251098633
aI0
aI0
aa(lp681
F0.714958667755127
aF-17.31559944152832
aI0
aI0
aa(lp682
F1.98196280002594
aF-17.327072143554688
aI0
aI0
aa(lp683
F0.16237308084964752
aF-17.33897590637207
aI0
aI0
aa(lp684
F2.6654906272888184
aF-17.35582733154297
aI0
aI0
aa(lp685
F1.2585502862930298
aF-17.382007598876953
aI0
aI0
aa(lp686
F2.59375262260437
aF-17.404895782470703
aI0
aI0
aa(lp687
F4.636790752410889
aF-17.4365177154541
aI0
aI0
aa(lp688
F1.6269605159759521
aF-17.46746253967285
aI0
aI0
aa(lp689
F0.023141231387853622
aF-17.48278045654297
aI0
aI0
aa(lp690
F1.8313615322113037
aF-17.48258399963379
aI0
aI0
aa(lp691
F5.325092315673828
aF-17.48504638671875
aI0
aI0
aa(lp692
F5.535868167877197
aF-17.45804214477539
aI0
aI0
aa(lp693
F10.39430046081543
aF-17.395946502685547
aI0
aI0
aa(lp694
F1.3202250003814697
aF-17.348020553588867
aI0
aI0
aa(lp695
F8.748104095458984
aF-17.298784255981445
aI0
aI0
aa(lp696
F4.458774566650391
aF-17.27907371520996
aI0
aI0
aa(lp697
F1.2822906970977783
aF-17.28171157836914
aI0
aI0
aa(lp698
F1.870945692062378
aF-17.28797149658203
aI0
aI0
aa(lp699
F1.2805190086364746
aF-17.313383102416992
aI0
aI0
aa(lp700
F1.2745312452316284
aF-17.352890014648438
aI0
aI0
aa(lp701
F6.214888572692871
aF-17.36503028869629
aI1
aI0
aa(lp702
F1.4245284795761108
aF-17.383609771728516
aI1
aI0
aa(lp703
F0.01039784587919712
aF-17.397428512573242
aI1
aI0
aa(lp704
F0.6924226880073547
aF-17.408370971679688
aI1
aI0
aa(lp705
F0.6959771513938904
aF-17.41946029663086
aI1
aI0
aa(lp706
F5.395939350128174
aF-17.439598083496094
aI1
aI0
aa(lp707
F1.2934964895248413
aF-17.45856475830078
aI1
aI0
aa(lp708
F4.997136116027832
aF-17.44876480102539
aI1
aI0
aa(lp709
F5.214720249176025
aF-17.430543899536133
aI1
aI0
aa(lp710
F8.015259742736816
aF-17.443082809448242
aI1
aI0
aa(lp711
F2.644270658493042
aF-17.465211868286133
aI1
aI0
aa(lp712
F6.749343395233154
aF-17.452899932861328
aI1
aI0
aa(lp713
F2.4414517879486084
aF-17.43474006652832
aI1
aI0
aa(lp714
F2.484942674636841
aF-17.430938720703125
aI1
aI0
aa(lp715
F0.6937135457992554
aF-17.422969818115234
aI1
aI0
aa(lp716
F0.16890816390514374
aF-17.406688690185547
aI1
aI0
aa(lp717
F5.03867769241333
aF-17.409870147705078
aI1
aI0
aa(lp718
F0.6683604121208191
aF-17.413610458374023
aI1
aI0
aa(lp719
F1.3669606447219849
aF-17.404815673828125
aI1
aI0
aa(lp720
F3.421051502227783
aF-17.411840438842773
aI1
aI0
aa(lp721
F8.086017608642578
aF-17.432044982910156
aI1
aI0
aa(lp722
F2.5675413608551025
aF-17.442495346069336
aI1
aI0
aa(lp723
F1.1464747190475464
aF-17.455049514770508
aI1
aI0
aa(lp724
F0.18971222639083862
aF-17.453325271606445
aI1
aI0
aa(lp725
F0.6360108256340027
aF-17.44645881652832
aI1
aI0
aa(lp726
F7.753231048583984
aF-17.41545867919922
aI1
aI0
aa(lp727
F7.624631404876709
aF-17.376678466796875
aI1
aI0
aa(lp728
F3.429900646209717
aF-17.35971450805664
aI1
aI0
aa(lp729
F1.8835382461547852
aF-17.359943389892578
aI1
aI0
aa(lp730
F5.33441686630249
aF-17.359249114990234
aI1
aI0
aa(lp731
F6.432487487792969
aF-17.390750885009766
aI1
aI0
aa(lp732
F1.2557603120803833
aF-17.425106048583984
aI1
aI0
aa(lp733
F0.01563287153840065
aF-17.44894790649414
aI1
aI0
aa(lp734
F1.2513141632080078
aF-17.47039794921875
aI1
aI0
aa(lp735
F2.0217111110687256
aF-17.49333953857422
aI1
aI0
aa(lp736
F1.3849252462387085
aF-17.4898738861084
aI1
aI0
aa(lp737
F1.2533271312713623
aF-17.481868743896484
aI1
aI0
aa(lp738
F6.716057300567627
aF-17.484466552734375
aI1
aI0
aa(lp739
F4.069885730743408
aF-17.499080657958984
aI1
aI0
aa(lp740
F1.2532024383544922
aF-17.50646209716797
aI1
aI0
aa(lp741
F1.2554348707199097
aF-17.506162643432617
aI1
aI0
aa(lp742
F0.8631676435470581
aF-17.490249633789062
aI1
aI0
aa(lp743
F6.349600315093994
aF-17.455188751220703
aI1
aI0
aa(lp744
F6.722197532653809
aF-17.435792922973633
aI1
aI0
aa(lp745
F0.0177259910851717
aF-17.409496307373047
aI1
aI0
aa(lp746
F0.8018075823783875
aF-17.38290023803711
aI1
aI0
aa(lp747
F1.2515701055526733
aF-17.348608016967773
aI1
aI0
aa(lp748
F1.453549861907959
aF-17.324037551879883
aI1
aI0
aa(lp749
F1.2652716636657715
aF-17.314424514770508
aI1
aI0
aa(lp750
F0.6404960751533508
aF-17.315513610839844
aI1
aI0
aa(lp751
F0.6383834481239319
aF-17.32333755493164
aI0
aI0
aa(lp752
F1.1842390298843384
aF-17.325563430786133
aI0
aI0
aa(lp753
F0.7904811501502991
aF-17.334556579589844
aI0
aI0
aa(lp754
F1.2632867097854614
aF-17.352048873901367
aI0
aI0
aa(lp755
F1.2609844207763672
aF-17.379268646240234
aI0
aI0
aa(lp756
F0.7037598490715027
aF-17.407909393310547
aI0
aI0
aa(lp757
F4.412355899810791
aF-17.42983627319336
aI0
aI0
aa(lp758
F3.9834160804748535
aF-17.448299407958984
aI0
aI0
aa(lp759
F8.109830856323242
aF-17.486038208007812
aI0
aI0
aa(lp760
F2.445983409881592
aF-17.508777618408203
aI0
aI0
aa(lp761
F10.24346923828125
aF-17.472017288208008
aI0
aI0
aa(lp762
F1.7337501049041748
aF-17.42145347595215
aI0
aI0
aa(lp763
F0.18434958159923553
aF-17.365436553955078
aI0
aI0
aa(lp764
F0.36442333459854126
aF-17.317697525024414
aI0
aI0
aa(lp765
F0.6423412561416626
aF-17.2829647064209
aI0
aI0
aa(lp766
F1.8123210668563843
aF-17.255535125732422
aI0
aI0
aa(lp767
F1.4072695970535278
aF-17.25223159790039
aI0
aI0
aa(lp768
F2.178661346435547
aF-17.255098342895508
aI0
aI0
aa(lp769
F0.019260777160525322
aF-17.27028465270996
aI0
aI0
aa(lp770
F1.2807499170303345
aF-17.299407958984375
aI0
aI0
aa(lp771
F1.2752383947372437
aF-17.340980529785156
aI0
aI0
aa(lp772
F6.777164459228516
aF-17.380409240722656
aI0
aI0
aa(lp773
F7.33519983291626
aF-17.44064712524414
aI0
aI0
aa(lp774
F1.881451964378357
aF-17.48194122314453
aI0
aI0
aa(lp775
F4.751921653747559
aF-17.52709197998047
aI0
aI0
aa(lp776
F0.045441996306180954
aF-17.548336029052734
aI0
aI0
aa(lp777
F2.8517839908599854
aF-17.56167984008789
aI0
aI0
aa(lp778
F0.05882196128368378
aF-17.54793357849121
aI0
aI0
aa(lp779
F7.957912445068359
aF-17.519948959350586
aI0
aI0
aa(lp780
F6.546845436096191
aF-17.503461837768555
aI0
aI0
aa(lp781
F12.88907241821289
aF-17.44325065612793
aI0
aI0
aa(lp782
F2.442260980606079
aF-17.381195068359375
aI0
aI0
aa(lp783
F5.68164587020874
aF-17.35289192199707
aI0
aI0
aa(lp784
F0.017889894545078278
aF-17.32537078857422
aI0
aI0
aa(lp785
F1.1861456632614136
aF-17.298641204833984
aI0
aI0
aa(lp786
F1.9049984216690063
aF-17.29178237915039
aI0
aI0
aa(lp787
F1.6176151037216187
aF-17.298263549804688
aI0
aI0
aa(lp788
F6.189120292663574
aF-17.29792022705078
aI0
aI0
aa(lp789
F0.8178097605705261
aF-17.30447006225586
aI0
aI0
aa(lp790
F3.157849073410034
aF-17.34147834777832
aI0
aI0
aa(lp791
F8.057029724121094
aF-17.347476959228516
aI0
aI0
aa(lp792
F1.6145741939544678
aF-17.365299224853516
aI0
aI0
aa(lp793
F3.0327212810516357
aF-17.36944007873535
aI0
aI0
aa(lp794
F0.6347611546516418
aF-17.374841690063477
aI0
aI0
aa(lp795
F2.056443214416504
aF-17.390575408935547
aI0
aI0
aa(lp796
F2.4964616298675537
aF-17.400693893432617
aI0
aI0
aa(lp797
F4.931977272033691
aF-17.390953063964844
aI0
aI0
aa(lp798
F0.014422514475882053
aF-17.375240325927734
aI0
aI0
aa(lp799
F1.3936060667037964
aF-17.34872817993164
aI0
aI0
aa(lp800
F7.57536506652832
aF-17.34861183166504
aI0
aI0
aa(lp801
F0.012129121460020542
aF-17.34638214111328
aI0
aI0
aa(lp802
F0.42230331897735596
aF-17.346202850341797
aI0
aI0
aa(lp803
F1.2623610496520996
aF-17.35650062561035
aI0
aI0
aa(lp804
F1.188427448272705
aF-17.355358123779297
aI0
aI0
aa(lp805
F3.4737401008605957
aF-17.372756958007812
aI0
aI0
aa(lp806
F0.634810209274292
aF-17.38822364807129
aI0
aI0
aa(lp807
F2.0307083129882812
aF-17.41333770751953
aI0
aI0
aa(lp808
F7.10162353515625
aF-17.426406860351562
aI0
aI0
aa(lp809
F1.3984520435333252
aF-17.436399459838867
aI0
aI0
aa(lp810
F1.2540582418441772
aF-17.44391441345215
aI0
aI0
aa(lp811
F7.865993499755859
aF-17.414142608642578
aI0
aI0
aa(lp812
F0.6358861923217773
aF-17.383996963500977
aI0
aI0
aa(lp813
F0.7927412390708923
aF-17.358732223510742
aI0
aI0
aa(lp814
F6.718628406524658
aF-17.314186096191406
aI0
aI0
aa(lp815
F0.009264698252081871
aF-17.27381134033203
aI0
aI0
aa(lp816
F0.6434025168418884
aF-17.25061798095703
aI0
aI0
aa(lp817
F2.5951216220855713
aF-17.255584716796875
aI0
aI0
aa(lp818
F10.942476272583008
aF-17.276395797729492
aI0
aI0
aa(lp819
F0.1688733845949173
aF-17.29876136779785
aI0
aI0
aa(lp820
F0.011843937449157238
aF-17.323822021484375
aI0
aI0
aa(lp821
F0.012127217836678028
aF-17.34746551513672
aI0
aI0
aa(lp822
F5.788414001464844
aF-17.37322998046875
aI0
aI0
aa(lp823
F0.7639599442481995
aF-17.394983291625977
aI0
aI0
aa(lp824
F1.2557363510131836
aF-17.419235229492188
aI0
aI0
aa(lp825
F0.6360704302787781
aF-17.437082290649414
aI0
aI0
aa(lp826
F1.8669930696487427
aF-17.439624786376953
aI0
aI0
aa(lp827
F0.6401670575141907
aF-17.435237884521484
aI0
aI0
aa(lp828
F5.4944024085998535
aF-17.432876586914062
aI0
aI0
aa(lp829
F2.041773796081543
aF-17.432872772216797
aI0
aI0
aa(lp830
F0.18337973952293396
aF-17.421005249023438
aI0
aI0
aa(lp831
F0.6368804574012756
aF-17.406536102294922
aI0
aI0
aa(lp832
F0.6362099647521973
aF-17.39038848876953
aI0
aI0
aa(lp833
F0.6365604996681213
aF-17.375934600830078
aI0
aI0
aa(lp834
F1.9421067237854004
aF-17.37667465209961
aI0
aI0
aa(lp835
F2.4400084018707275
aF-17.376455307006836
aI0
aI0
aa(lp836
F1.4523816108703613
aF-17.384851455688477
aI0
aI0
aa(lp837
F2.0919289588928223
aF-17.401546478271484
aI0
aI0
aa(lp838
F5.334446430206299
aF-17.423290252685547
aI0
aI0
aa(lp839
F0.6386266350746155
aF-17.439062118530273
aI0
aI0
aa(lp840
F9.900679588317871
aF-17.43997573852539
aI0
aI0
aa(lp841
F0.9867945313453674
aF-17.438003540039062
aI0
aI0
aa(lp842
F0.02092890255153179
aF-17.42435073852539
aI0
aI0
aa(lp843
F0.6378657817840576
aF-17.407499313354492
aI0
aI0
aa(lp844
F0.017925506457686424
aF-17.38390350341797
aI0
aI0
aa(lp845
F9.424005508422852
aF-17.348918914794922
aI0
aI0
aa(lp846
F1.2617807388305664
aF-17.326072692871094
aI0
aI0
aa(lp847
F0.6382821202278137
aF-17.309314727783203
aI0
aI0
aa(lp848
F0.7645473480224609
aF-17.29979705810547
aI0
aI0
aa(lp849
F0.6390789151191711
aF-17.29811668395996
aI0
aI0
aa(lp850
F3.0233700275421143
aF-17.312877655029297
aI0
aI0
aa(lp851
F10.240751266479492
aF-17.32843780517578
aI0
aI0
aa(lp852
F6.478213310241699
aF-17.37688636779785
aI0
aI0
aa(lp853
F0.16535250842571259
aF-17.41095542907715
aI0
aI0
aa(lp854
F6.127355098724365
aF-17.420570373535156
aI0
aI0
aa(lp855
F0.6374692916870117
aF-17.425722122192383
aI0
aI0
aa(lp856
F4.934858798980713
aF-17.40410041809082
aI0
aI0
aa(lp857
F1.5039762258529663
aF-17.383413314819336
aI0
aI0
aa(lp858
F1.8517837524414062
aF-17.357288360595703
aI0
aI0
aa(lp859
F4.563755989074707
aF-17.34935760498047
aI0
aI0
aa(lp860
F0.794157862663269
aF-17.341955184936523
aI0
aI0
aa(lp861
F1.8484644889831543
aF-17.33258819580078
aI0
aI0
aa(lp862
F3.2213220596313477
aF-17.330976486206055
aI0
aI0
aa(lp863
F0.01184505969285965
aF-17.329586029052734
aI0
aI0
aa(lp864
F5.196620464324951
aF-17.33463478088379
aI0
aI0
aa(lp865
F2.3580970764160156
aF-17.322711944580078
aI0
aI0
aa(lp866
F1.8099688291549683
aF-17.309663772583008
aI0
aI0
aa(lp867
F1.8129223585128784
aF-17.297531127929688
aI0
aI0
aa(lp868
F0.6394278407096863
aF-17.292648315429688
aI0
aI0
aa(lp869
F0.6432988047599792
aF-17.297382354736328
aI0
aI0
aa(lp870
F5.523069858551025
aF-17.29610824584961
aI0
aI0
aa(lp871
F0.010724990628659725
aF-17.29690170288086
aI0
aI0
aa(lp872
F0.6413781642913818
aF-17.305206298828125
aI0
aI0
aa(lp873
F0.05435102432966232
aF-17.3137149810791
aI0
aI0
aa(lp874
F4.620227336883545
aF-17.335783004760742
aI0
aI0
aa(lp875
F0.637605607509613
aF-17.358430862426758
aI0
aI0
aa(lp876
F1.2611558437347412
aF-17.38631820678711
aI0
aI0
aa(lp877
F4.192719459533691
aF-17.418655395507812
aI0
aI0
aa(lp878
F0.6386935114860535
aF-17.442779541015625
aI0
aI0
aa(lp879
F10.229789733886719
aF-17.430091857910156
aI0
aI0
aa(lp880
F0.6388713717460632
aF-17.41118812561035
aI0
aI0
aa(lp881
F0.6374735236167908
aF-17.39198875427246
aI0
aI0
aa(lp882
F3.800215005874634
aF-17.379640579223633
aI0
aI0
aa(lp883
F0.7891245484352112
aF-17.369441986083984
aI0
aI0
aa(lp884
F0.636287271976471
aF-17.359699249267578
aI0
aI0
aa(lp885
F3.7436020374298096
aF-17.359939575195312
aI0
aI0
aa(lp886
F0.012028517201542854
aF-17.355056762695312
aI0
aI0
aa(lp887
F0.6367608308792114
aF-17.35305404663086
aI0
aI0
aa(lp888
F6.158136367797852
aF-17.36502456665039
aI0
aI0
aa(lp889
F4.1450276374816895
aF-17.377403259277344
aI0
aI0
aa(lp890
F5.6064043045043945
aF-17.3638916015625
aI0
aI0
aa(lp891
F0.6371768712997437
aF-17.351518630981445
aI0
aI0
aa(lp892
F0.6371912360191345
aF-17.342548370361328
aI0
aI0
aa(lp893
F0.011269832029938698
aF-17.332273483276367
aI0
aI0
aa(lp894
F1.3270052671432495
aF-17.33300018310547
aI0
aI0
aa(lp895
F0.6375604867935181
aF-17.336833953857422
aI0
aI0
aa(lp896
F6.159182071685791
aF-17.332679748535156
aI0
aI0
aa(lp897
F7.181581974029541
aF-17.322994232177734
aI0
aI0
aa(lp898
F0.00915444828569889
aF-17.31212615966797
aI0
aI0
aa(lp899
F0.009997129440307617
aF-17.30229949951172
aI0
aI0
aa(lp900
F1.6480625867843628
aF-17.307239532470703
aI0
aI0
aa(lp901
F1.8969764709472656
aF-17.327678680419922
aI0
aI0
aa(lp902
F0.704024612903595
aF-17.353178024291992
aI0
aI0
aa(lp903
F1.2615981101989746
aF-17.382535934448242
aI0
aI0
aa(lp904
F4.605654239654541
aF-17.415346145629883
aI0
aI0
aa(lp905
F1.889955997467041
aF-17.450389862060547
aI0
aI0
aa(lp906
F2.794271469116211
aF-17.473989486694336
aI0
aI0
aa(lp907
F0.792308509349823
aF-17.48147964477539
aI0
aI0
aa(lp908
F1.425142765045166
aF-17.479562759399414
aI0
aI0
aa(lp909
F0.03824114054441452
aF-17.460594177246094
aI0
aI0
aa(lp910
F5.10813045501709
aF-17.40973663330078
aI0
aI0
aa(lp911
F2.603630304336548
aF-17.35424041748047
aI0
aI0
aa(lp912
F0.785335898399353
aF-17.307540893554688
aI0
aI0
aa(lp913
F0.6398743391036987
aF-17.27240753173828
aI0
aI0
aa(lp914
F0.01186101883649826
aF-17.244600296020508
aI0
aI0
aa(lp915
F0.6528254151344299
aF-17.233844757080078
aI0
aI0
aa(lp916
F1.1753480434417725
aF-17.222768783569336
aI0
aI0
aa(lp917
F4.656721115112305
aF-17.221073150634766
aI0
aI0
aa(lp918
F6.686982154846191
aF-17.25415802001953
aI0
aI0
aa(lp919
F1.8099206686019897
aF-17.2880916595459
aI0
aI0
aa(lp920
F6.621466159820557
aF-17.34797477722168
aI0
aI0
aa(lp921
F0.010740647092461586
aF-17.396530151367188
aI0
aI0
aa(lp922
F0.147685244679451
aF-17.42955207824707
aI0
aI0
aa(lp923
F2.5056393146514893
aF-17.450759887695312
aI0
aI0
aa(lp924
F0.6444446444511414
aF-17.46159553527832
aI0
aI0
aa(lp925
F4.702808380126953
aF-17.463865280151367
aI0
aI0
aa(lp926
F1.8358701467514038
aF-17.448226928710938
aI0
aI0
aa(lp927
F6.561863422393799
aF-17.44505500793457
aI0
aI0
aa(lp928
F0.798599898815155
aF-17.434715270996094
aI0
aI0
aa(lp929
F2.7393252849578857
aF-17.39690589904785
aI0
aI0
aa(lp930
F2.223878860473633
aF-17.364627838134766
aI0
aI0
aa(lp931
F6.588277816772461
aF-17.31096839904785
aI0
aI0
aa(lp932
F1.2659614086151123
aF-17.272193908691406
aI0
aI0
aa(lp933
F0.012401356361806393
aF-17.24050521850586
aI0
aI0
aa(lp934
F4.937932968139648
aF-17.202007293701172
aI0
aI0
aa(lp935
F1.8127962350845337
aF-17.175439834594727
aI0
aI0
aa(lp936
F1.3074278831481934
aF-17.17731285095215
aI0
aI0
aa(lp937
F0.6661028265953064
aF-17.19629669189453
aI0
aI0
aa(lp938
F17.146081924438477
aF-17.244047164916992
aI0
aI0
aa(lp939
F0.22518444061279297
aF-17.293514251708984
aI0
aI0
aa(lp940
F8.747437477111816
aF-17.358694076538086
aI0
aI0
aa(lp941
F0.6453326344490051
aF-17.41706657409668
aI0
aI0
aa(lp942
F5.476843357086182
aF-17.441696166992188
aI0
aI0
aa(lp943
F3.123501777648926
aF-17.44391632080078
aI0
aI0
aa(lp944
F1.2948564291000366
aF-17.440990447998047
aI0
aI0
aa(lp945
F3.796353816986084
aF-17.438251495361328
aI0
aI0
aa(lp946
F1.260654330253601
aF-17.431724548339844
aI0
aI0
aa(lp947
F1.2620059251785278
aF-17.42328453063965
aI0
aI0
aa(lp948
F0.6419902443885803
aF-17.405813217163086
aI0
aI0
aa(lp949
F4.4264020919799805
aF-17.40019989013672
aI0
aI0
aa(lp950
F2.26533842086792
aF-17.39295768737793
aI0
aI0
aa(lp951
F0.01799694076180458
aF-17.375953674316406
aI0
aI0
aa(lp952
F0.6378214955329895
aF-17.359493255615234
aI0
aI0
aa(lp953
F1.8213531970977783
aF-17.33712387084961
aI0
aI0
aa(lp954
F7.20414924621582
aF-17.301101684570312
aI0
aI0
aa(lp955
F1.4208263158798218
aF-17.279125213623047
aI0
aI0
aa(lp956
F0.646198570728302
aF-17.269105911254883
aI0
aI0
aa(lp957
F1.2752422094345093
aF-17.273393630981445
aI0
aI0
aa(lp958
F0.011589910835027695
aF-17.280258178710938
aI0
aI0
aa(lp959
F0.011762116104364395
aF-17.289453506469727
aI0
aI0
aa(lp960
F7.945766925811768
aF-17.277448654174805
aI0
aI0
aa(lp961
F0.011192143894731998
aF-17.270675659179688
aI0
aI0
aa(lp962
F3.090728521347046
aF-17.261581420898438
aI0
aI0
aa(lp963
F6.1361870765686035
aF-17.275928497314453
aI0
aI0
aa(lp964
F5.537552833557129
aF-17.283205032348633
aI0
aI0
aa(lp965
F7.406978130340576
aF-17.28274917602539
aI0
aI0
aa(lp966
F2.9804725646972656
aF-17.296401977539062
aI0
aI0
aa(lp967
F0.1616775542497635
aF-17.312088012695312
aI0
aI0
aa(lp968
F0.1736615151166916
aF-17.322956085205078
aI0
aI0
aa(lp969
F0.6374200582504272
aF-17.3355655670166
aI0
aI0
aa(lp970
F5.270890712738037
aF-17.34748077392578
aI0
aI0
aa(lp971
F0.6453600525856018
aF-17.35894012451172
aI0
aI0
aa(lp972
F1.5701957941055298
aF-17.372236251831055
aI0
aI0
aa(lp973
F2.9580490589141846
aF-17.389202117919922
aI0
aI0
aa(lp974
F2.596013307571411
aF-17.3986873626709
aI0
aI0
aa(lp975
F0.4278222322463989
aF-17.402725219726562
aI0
aI0
aa(lp976
F1.2025771141052246
aF-17.38727378845215
aI0
aI0
aa(lp977
F1.8819944858551025
aF-17.38072967529297
aI0
aI0
aa(lp978
F7.432339668273926
aF-17.356666564941406
aI0
aI0
aa(lp979
F1.3307693004608154
aF-17.31865692138672
aI0
aI0
aa(lp980
F1.4462857246398926
aF-17.28919219970703
aI0
aI0
aa(lp981
F0.01148153468966484
aF-17.26316261291504
aI0
aI0
aa(lp982
F5.587764263153076
aF-17.225553512573242
aI0
aI0
aa(lp983
F0.05494394153356552
aF-17.201396942138672
aI0
aI0
aa(lp984
F0.6547653079032898
aF-17.193668365478516
aI0
aI0
aa(lp985
F0.6631441712379456
aF-17.204675674438477
aI0
aI0
aa(lp986
F0.5277342796325684
aF-17.227550506591797
aI0
aI0
aa(lp987
F5.618066310882568
aF-17.27470588684082
aI0
aI0
aa(lp988
F1.2745914459228516
aF-17.329774856567383
aI0
aI0
aa(lp989
F4.907680988311768
aF-17.36029815673828
aI0
aI0
aa(lp990
F1.404542326927185
aF-17.38968276977539
aI0
aI0
aa(lp991
F1.2983343601226807
aF-17.418811798095703
aI0
aI0
aa(lp992
F1.2068119049072266
aF-17.42321014404297
aI0
aI0
aa(lp993
F2.4481372833251953
aF-17.41640853881836
aI0
aI0
aa(lp994
F0.1695888191461563
aF-17.392515182495117
aI0
aI0
aa(lp995
F5.696112155914307
aF-17.35413360595703
aI0
aI0
aa(lp996
F0.013570726849138737
aF-17.31426429748535
aI0
aI0
aa(lp997
F0.6381396651268005
aF-17.281391143798828
aI0
aI0
aa(lp998
F0.009765365161001682
aF-17.252811431884766
aI0
aI0
aa(lp999
F0.17280793190002441
aF-17.228553771972656
aI0
aI0
aa(lp1000
F0.6503417491912842
aF-17.218650817871094
aI0
aI0
aa.